cnumpy.core.multiarray
_reconstruct
p0
(cnumpy
ndarray
p1
(I0
tp2
S'b'
p3
tp4
Rp5
(I1
(I1729
tp6
cnumpy
dtype
p7
(S'S91'
p8
I0
I1
tp9
Rp10
(I3
S'|'
p11
NNNI91
I1
I0
tp12
bI00
S'pa3ofhvvLzw/{domain}/point_0__view_20a0c1671ff5485da75261be763ef9db__{domain}_fixated.png\x00\x00pa3ofhvvLzw/{domain}/point_0__view_341e14cc33c44cd48cbe1230272270db__{domain}_fixated.png\x00\x00pa3ofhvvLzw/{domain}/point_0__view_e35ea8c84afd45869ef2434b420072e4__{domain}_fixated.png\x00\x00pa3ofhvvLzw/{domain}/point_0__view_ea6847c2cb9348178bd0697a5e92ecaa__{domain}_fixated.png\x00\x00pa3ofhvvLzw/{domain}/point_100__view_20a0c1671ff5485da75261be763ef9db__{domain}_fixated.pngpa3ofhvvLzw/{domain}/point_100__view_50dbfa23f49345ea8fa6110958d49f71__{domain}_fixated.pngpa3ofhvvLzw/{domain}/point_100__view_d699402350db4c8784d0152f99a4d238__{domain}_fixated.pngpa3ofhvvLzw/{domain}/point_100__view_e35ea8c84afd45869ef2434b420072e4__{domain}_fixated.pngpa3ofhvvLzw/{domain}/point_101__view_25c8ed4db050433c8d2888f6519fb03c__{domain}_fixated.pngpa3ofhvvLzw/{domain}/point_101__view_9675bde56b2b4b3cbc9f4f48ffdff5a0__{domain}_fixated.pngpa3ofhvvLzw/{domain}/point_101__view_a6ff7ea9259a4d30b3851d811a42bc81__{domain}_fixated.pngpa3ofhvvLzw/{domain}/point_102__view_20a0c1671ff5485da75261be763ef9db__{domain}_fixated.pngpa3ofhvvLzw/{domain}/point_102__view_341e14cc33c44cd48cbe1230272270db__{domain}_fixated.pngpa3ofhvvLzw/{domain}/point_102__view_3b9c05000fcf40d3b4e5255626303b39__{domain}_fixated.pngpa3ofhvvLzw/{domain}/point_102__view_e35ea8c84afd45869ef2434b420072e4__{domain}_fixated.pngpa3ofhvvLzw/{domain}/point_103__view_20a0c1671ff5485da75261be763ef9db__{domain}_fixated.pngpa3ofhvvLzw/{domain}/point_103__view_341e14cc33c44cd48cbe1230272270db__{domain}_fixated.pngpa3ofhvvLzw/{domain}/point_103__view_3b9c05000fcf40d3b4e5255626303b39__{domain}_fixated.pngpa3ofhvvLzw/{domain}/point_103__view_d699402350db4c8784d0152f99a4d238__{domain}_fixated.pngpa3ofhvvLzw/{domain}/point_104__view_646002c368734698a42fab3232a1039a__{domain}_fixated.pngpa3ofhvvLzw/{domain}/point_104__view_695df6af2970408dae4e29bb6b4d45a1__{domain}_fixated.pngpa3ofhvvLzw/{domain}/point_104__view_827a2d0be84e41868be3b10d670441bf__{domain}_fixated.pngpa3ofhvvLzw/{domain}/point_104__view_ca1c1fa850f34d8492def93ebfdda01d__{domain}_fixated.pngpa3ofhvvLzw/{domain}/point_104__view_e2b1bd0bbf344902bea242bcd2bfba45__{domain}_fixated.pngpa3ofhvvLzw/{domain}/point_105__view_0dabb087739b4decbca522ea41d11e2b__{domain}_fixated.pngpa3ofhvvLzw/{domain}/point_105__view_33c1240bc276484b91c56a080e19bc0b__{domain}_fixated.pngpa3ofhvvLzw/{domain}/point_105__view_4aa83e63f5e54cf18aa96220e6472dbc__{domain}_fixated.pngpa3ofhvvLzw/{domain}/point_105__view_695df6af2970408dae4e29bb6b4d45a1__{domain}_fixated.pngpa3ofhvvLzw/{domain}/point_105__view_ca1c1fa850f34d8492def93ebfdda01d__{domain}_fixated.pngpa3ofhvvLzw/{domain}/point_106__view_20a0c1671ff5485da75261be763ef9db__{domain}_fixated.pngpa3ofhvvLzw/{domain}/point_106__view_341e14cc33c44cd48cbe1230272270db__{domain}_fixated.pngpa3ofhvvLzw/{domain}/point_107__view_0dabb087739b4decbca522ea41d11e2b__{domain}_fixated.pngpa3ofhvvLzw/{domain}/point_107__view_33c1240bc276484b91c56a080e19bc0b__{domain}_fixated.pngpa3ofhvvLzw/{domain}/point_107__view_a6ff7ea9259a4d30b3851d811a42bc81__{domain}_fixated.pngpa3ofhvvLzw/{domain}/point_107__view_ca1c1fa850f34d8492def93ebfdda01d__{domain}_fixated.pngpa3ofhvvLzw/{domain}/point_108__view_0dabb087739b4decbca522ea41d11e2b__{domain}_fixated.pngpa3ofhvvLzw/{domain}/point_108__view_33c1240bc276484b91c56a080e19bc0b__{domain}_fixated.pngpa3ofhvvLzw/{domain}/point_108__view_4aa83e63f5e54cf18aa96220e6472dbc__{domain}_fixated.pngpa3ofhvvLzw/{domain}/point_108__view_ca1c1fa850f34d8492def93ebfdda01d__{domain}_fixated.pngpa3ofhvvLzw/{domain}/point_109__view_695df6af2970408dae4e29bb6b4d45a1__{domain}_fixated.pngpa3ofhvvLzw/{domain}/point_109__view_ca1c1fa850f34d8492def93ebfdda01d__{domain}_fixated.pngpa3ofhvvLzw/{domain}/point_10__view_0dabb087739b4decbca522ea41d11e2b__{domain}_fixated.png\x00pa3ofhvvLzw/{domain}/point_10__view_33c1240bc276484b91c56a080e19bc0b__{domain}_fixated.png\x00pa3ofhvvLzw/{domain}/point_10__view_695df6af2970408dae4e29bb6b4d45a1__{domain}_fixated.png\x00pa3ofhvvLzw/{domain}/point_10__view_ca1c1fa850f34d8492def93ebfdda01d__{domain}_fixated.png\x00pa3ofhvvLzw/{domain}/point_110__view_9312509783424e2c82ed5c10ad350084__{domain}_fixated.pngpa3ofhvvLzw/{domain}/point_110__view_9675bde56b2b4b3cbc9f4f48ffdff5a0__{domain}_fixated.pngpa3ofhvvLzw/{domain}/point_110__view_a6ff7ea9259a4d30b3851d811a42bc81__{domain}_fixated.pngpa3ofhvvLzw/{domain}/point_111__view_20a0c1671ff5485da75261be763ef9db__{domain}_fixated.pngpa3ofhvvLzw/{domain}/point_111__view_3b9c05000fcf40d3b4e5255626303b39__{domain}_fixated.pngpa3ofhvvLzw/{domain}/point_111__view_7cc913e4f8b3446497b0bd2c4e848674__{domain}_fixated.pngpa3ofhvvLzw/{domain}/point_111__view_bdafdf26f6c04a478d51b26a10fc7488__{domain}_fixated.pngpa3ofhvvLzw/{domain}/point_112__view_00be6a3da05445bbb3b411fa774a3448__{domain}_fixated.pngpa3ofhvvLzw/{domain}/point_112__view_ca1c1fa850f34d8492def93ebfdda01d__{domain}_fixated.pngpa3ofhvvLzw/{domain}/point_113__view_20a0c1671ff5485da75261be763ef9db__{domain}_fixated.pngpa3ofhvvLzw/{domain}/point_113__view_3b9c05000fcf40d3b4e5255626303b39__{domain}_fixated.pngpa3ofhvvLzw/{domain}/point_113__view_50dbfa23f49345ea8fa6110958d49f71__{domain}_fixated.pngpa3ofhvvLzw/{domain}/point_113__view_5882b50dd9144bff89cb5f7d16638355__{domain}_fixated.pngpa3ofhvvLzw/{domain}/point_113__view_7cc913e4f8b3446497b0bd2c4e848674__{domain}_fixated.pngpa3ofhvvLzw/{domain}/point_113__view_bdafdf26f6c04a478d51b26a10fc7488__{domain}_fixated.pngpa3ofhvvLzw/{domain}/point_114__view_20a0c1671ff5485da75261be763ef9db__{domain}_fixated.pngpa3ofhvvLzw/{domain}/point_114__view_3b9c05000fcf40d3b4e5255626303b39__{domain}_fixated.pngpa3ofhvvLzw/{domain}/point_115__view_0dabb087739b4decbca522ea41d11e2b__{domain}_fixated.pngpa3ofhvvLzw/{domain}/point_115__view_33c1240bc276484b91c56a080e19bc0b__{domain}_fixated.pngpa3ofhvvLzw/{domain}/point_115__view_695df6af2970408dae4e29bb6b4d45a1__{domain}_fixated.pngpa3ofhvvLzw/{domain}/point_115__view_ca1c1fa850f34d8492def93ebfdda01d__{domain}_fixated.pngpa3ofhvvLzw/{domain}/point_116__view_30e2b3dfb71d4c5cadb454f55f18dad7__{domain}_fixated.pngpa3ofhvvLzw/{domain}/point_116__view_8549a19947f34117a7c4ae8f48681d81__{domain}_fixated.pngpa3ofhvvLzw/{domain}/point_116__view_a6ff7ea9259a4d30b3851d811a42bc81__{domain}_fixated.pngpa3ofhvvLzw/{domain}/point_117__view_646002c368734698a42fab3232a1039a__{domain}_fixated.pngpa3ofhvvLzw/{domain}/point_117__view_695df6af2970408dae4e29bb6b4d45a1__{domain}_fixated.pngpa3ofhvvLzw/{domain}/point_117__view_827a2d0be84e41868be3b10d670441bf__{domain}_fixated.pngpa3ofhvvLzw/{domain}/point_117__view_ab2198f82bd74f4f917d15f1ae9db8f2__{domain}_fixated.pngpa3ofhvvLzw/{domain}/point_117__view_ca1c1fa850f34d8492def93ebfdda01d__{domain}_fixated.pngpa3ofhvvLzw/{domain}/point_117__view_e2b1bd0bbf344902bea242bcd2bfba45__{domain}_fixated.pngpa3ofhvvLzw/{domain}/point_118__view_20a0c1671ff5485da75261be763ef9db__{domain}_fixated.pngpa3ofhvvLzw/{domain}/point_118__view_3b9c05000fcf40d3b4e5255626303b39__{domain}_fixated.pngpa3ofhvvLzw/{domain}/point_119__view_25c8ed4db050433c8d2888f6519fb03c__{domain}_fixated.pngpa3ofhvvLzw/{domain}/point_119__view_9312509783424e2c82ed5c10ad350084__{domain}_fixated.pngpa3ofhvvLzw/{domain}/point_119__view_9675bde56b2b4b3cbc9f4f48ffdff5a0__{domain}_fixated.pngpa3ofhvvLzw/{domain}/point_119__view_a6ff7ea9259a4d30b3851d811a42bc81__{domain}_fixated.pngpa3ofhvvLzw/{domain}/point_11__view_20a0c1671ff5485da75261be763ef9db__{domain}_fixated.png\x00pa3ofhvvLzw/{domain}/point_11__view_341e14cc33c44cd48cbe1230272270db__{domain}_fixated.png\x00pa3ofhvvLzw/{domain}/point_11__view_3b9c05000fcf40d3b4e5255626303b39__{domain}_fixated.png\x00pa3ofhvvLzw/{domain}/point_11__view_e35ea8c84afd45869ef2434b420072e4__{domain}_fixated.png\x00pa3ofhvvLzw/{domain}/point_120__view_9312509783424e2c82ed5c10ad350084__{domain}_fixated.pngpa3ofhvvLzw/{domain}/point_120__view_d9bf19f531ac478ba48be1c481bee6e4__{domain}_fixated.pngpa3ofhvvLzw/{domain}/point_121__view_53b0970d28744d21ba03ff9bfe2cf20e__{domain}_fixated.pngpa3ofhvvLzw/{domain}/point_121__view_d9bf19f531ac478ba48be1c481bee6e4__{domain}_fixated.pngpa3ofhvvLzw/{domain}/point_122__view_25c8ed4db050433c8d2888f6519fb03c__{domain}_fixated.pngpa3ofhvvLzw/{domain}/point_122__view_9675bde56b2b4b3cbc9f4f48ffdff5a0__{domain}_fixated.pngpa3ofhvvLzw/{domain}/point_122__view_a6ff7ea9259a4d30b3851d811a42bc81__{domain}_fixated.pngpa3ofhvvLzw/{domain}/point_123__view_53b0970d28744d21ba03ff9bfe2cf20e__{domain}_fixated.pngpa3ofhvvLzw/{domain}/point_123__view_9312509783424e2c82ed5c10ad350084__{domain}_fixated.pngpa3ofhvvLzw/{domain}/point_124__view_20a0c1671ff5485da75261be763ef9db__{domain}_fixated.pngpa3ofhvvLzw/{domain}/point_124__view_3b9c05000fcf40d3b4e5255626303b39__{domain}_fixated.pngpa3ofhvvLzw/{domain}/point_125__view_646002c368734698a42fab3232a1039a__{domain}_fixated.pngpa3ofhvvLzw/{domain}/point_125__view_695df6af2970408dae4e29bb6b4d45a1__{domain}_fixated.pngpa3ofhvvLzw/{domain}/point_125__view_827a2d0be84e41868be3b10d670441bf__{domain}_fixated.pngpa3ofhvvLzw/{domain}/point_125__view_ab2198f82bd74f4f917d15f1ae9db8f2__{domain}_fixated.pngpa3ofhvvLzw/{domain}/point_125__view_ca1c1fa850f34d8492def93ebfdda01d__{domain}_fixated.pngpa3ofhvvLzw/{domain}/point_125__view_e2b1bd0bbf344902bea242bcd2bfba45__{domain}_fixated.pngpa3ofhvvLzw/{domain}/point_126__view_33c1240bc276484b91c56a080e19bc0b__{domain}_fixated.pngpa3ofhvvLzw/{domain}/point_126__view_695df6af2970408dae4e29bb6b4d45a1__{domain}_fixated.pngpa3ofhvvLzw/{domain}/point_127__view_0dabb087739b4decbca522ea41d11e2b__{domain}_fixated.pngpa3ofhvvLzw/{domain}/point_127__view_30e2b3dfb71d4c5cadb454f55f18dad7__{domain}_fixated.pngpa3ofhvvLzw/{domain}/point_127__view_33c1240bc276484b91c56a080e19bc0b__{domain}_fixated.pngpa3ofhvvLzw/{domain}/point_127__view_4aa83e63f5e54cf18aa96220e6472dbc__{domain}_fixated.pngpa3ofhvvLzw/{domain}/point_127__view_53b0970d28744d21ba03ff9bfe2cf20e__{domain}_fixated.pngpa3ofhvvLzw/{domain}/point_127__view_ca1c1fa850f34d8492def93ebfdda01d__{domain}_fixated.pngpa3ofhvvLzw/{domain}/point_127__view_d9bf19f531ac478ba48be1c481bee6e4__{domain}_fixated.pngpa3ofhvvLzw/{domain}/point_128__view_0dabb087739b4decbca522ea41d11e2b__{domain}_fixated.pngpa3ofhvvLzw/{domain}/point_128__view_ca1c1fa850f34d8492def93ebfdda01d__{domain}_fixated.pngpa3ofhvvLzw/{domain}/point_128__view_f4efc806a42e47758bb53a223ec24c40__{domain}_fixated.pngpa3ofhvvLzw/{domain}/point_129__view_20a0c1671ff5485da75261be763ef9db__{domain}_fixated.pngpa3ofhvvLzw/{domain}/point_129__view_3b9c05000fcf40d3b4e5255626303b39__{domain}_fixated.pngpa3ofhvvLzw/{domain}/point_129__view_50dbfa23f49345ea8fa6110958d49f71__{domain}_fixated.pngpa3ofhvvLzw/{domain}/point_129__view_5882b50dd9144bff89cb5f7d16638355__{domain}_fixated.pngpa3ofhvvLzw/{domain}/point_129__view_d699402350db4c8784d0152f99a4d238__{domain}_fixated.pngpa3ofhvvLzw/{domain}/point_12__view_0dabb087739b4decbca522ea41d11e2b__{domain}_fixated.png\x00pa3ofhvvLzw/{domain}/point_12__view_53b0970d28744d21ba03ff9bfe2cf20e__{domain}_fixated.png\x00pa3ofhvvLzw/{domain}/point_12__view_9312509783424e2c82ed5c10ad350084__{domain}_fixated.png\x00pa3ofhvvLzw/{domain}/point_12__view_d9bf19f531ac478ba48be1c481bee6e4__{domain}_fixated.png\x00pa3ofhvvLzw/{domain}/point_130__view_9675bde56b2b4b3cbc9f4f48ffdff5a0__{domain}_fixated.pngpa3ofhvvLzw/{domain}/point_130__view_a6ff7ea9259a4d30b3851d811a42bc81__{domain}_fixated.pngpa3ofhvvLzw/{domain}/point_131__view_20a0c1671ff5485da75261be763ef9db__{domain}_fixated.pngpa3ofhvvLzw/{domain}/point_131__view_341e14cc33c44cd48cbe1230272270db__{domain}_fixated.pngpa3ofhvvLzw/{domain}/point_132__view_30e2b3dfb71d4c5cadb454f55f18dad7__{domain}_fixated.pngpa3ofhvvLzw/{domain}/point_132__view_33c1240bc276484b91c56a080e19bc0b__{domain}_fixated.pngpa3ofhvvLzw/{domain}/point_133__view_20a0c1671ff5485da75261be763ef9db__{domain}_fixated.pngpa3ofhvvLzw/{domain}/point_133__view_341e14cc33c44cd48cbe1230272270db__{domain}_fixated.pngpa3ofhvvLzw/{domain}/point_133__view_3b9c05000fcf40d3b4e5255626303b39__{domain}_fixated.pngpa3ofhvvLzw/{domain}/point_133__view_5882b50dd9144bff89cb5f7d16638355__{domain}_fixated.pngpa3ofhvvLzw/{domain}/point_133__view_7cc913e4f8b3446497b0bd2c4e848674__{domain}_fixated.pngpa3ofhvvLzw/{domain}/point_133__view_bdafdf26f6c04a478d51b26a10fc7488__{domain}_fixated.pngpa3ofhvvLzw/{domain}/point_133__view_e35ea8c84afd45869ef2434b420072e4__{domain}_fixated.pngpa3ofhvvLzw/{domain}/point_134__view_695df6af2970408dae4e29bb6b4d45a1__{domain}_fixated.pngpa3ofhvvLzw/{domain}/point_134__view_827a2d0be84e41868be3b10d670441bf__{domain}_fixated.pngpa3ofhvvLzw/{domain}/point_134__view_ca1c1fa850f34d8492def93ebfdda01d__{domain}_fixated.pngpa3ofhvvLzw/{domain}/point_135__view_20a0c1671ff5485da75261be763ef9db__{domain}_fixated.pngpa3ofhvvLzw/{domain}/point_135__view_3b9c05000fcf40d3b4e5255626303b39__{domain}_fixated.pngpa3ofhvvLzw/{domain}/point_135__view_7cc913e4f8b3446497b0bd2c4e848674__{domain}_fixated.pngpa3ofhvvLzw/{domain}/point_135__view_bdafdf26f6c04a478d51b26a10fc7488__{domain}_fixated.pngpa3ofhvvLzw/{domain}/point_135__view_e35ea8c84afd45869ef2434b420072e4__{domain}_fixated.pngpa3ofhvvLzw/{domain}/point_136__view_827a2d0be84e41868be3b10d670441bf__{domain}_fixated.pngpa3ofhvvLzw/{domain}/point_136__view_ab2198f82bd74f4f917d15f1ae9db8f2__{domain}_fixated.pngpa3ofhvvLzw/{domain}/point_137__view_20a0c1671ff5485da75261be763ef9db__{domain}_fixated.pngpa3ofhvvLzw/{domain}/point_137__view_341e14cc33c44cd48cbe1230272270db__{domain}_fixated.pngpa3ofhvvLzw/{domain}/point_137__view_3b9c05000fcf40d3b4e5255626303b39__{domain}_fixated.pngpa3ofhvvLzw/{domain}/point_138__view_0dabb087739b4decbca522ea41d11e2b__{domain}_fixated.pngpa3ofhvvLzw/{domain}/point_138__view_33c1240bc276484b91c56a080e19bc0b__{domain}_fixated.pngpa3ofhvvLzw/{domain}/point_138__view_9675bde56b2b4b3cbc9f4f48ffdff5a0__{domain}_fixated.pngpa3ofhvvLzw/{domain}/point_138__view_a6ff7ea9259a4d30b3851d811a42bc81__{domain}_fixated.pngpa3ofhvvLzw/{domain}/point_138__view_ca1c1fa850f34d8492def93ebfdda01d__{domain}_fixated.pngpa3ofhvvLzw/{domain}/point_139__view_30e2b3dfb71d4c5cadb454f55f18dad7__{domain}_fixated.pngpa3ofhvvLzw/{domain}/point_139__view_4aa83e63f5e54cf18aa96220e6472dbc__{domain}_fixated.pngpa3ofhvvLzw/{domain}/point_139__view_8549a19947f34117a7c4ae8f48681d81__{domain}_fixated.pngpa3ofhvvLzw/{domain}/point_13__view_00be6a3da05445bbb3b411fa774a3448__{domain}_fixated.png\x00pa3ofhvvLzw/{domain}/point_13__view_ab2198f82bd74f4f917d15f1ae9db8f2__{domain}_fixated.png\x00pa3ofhvvLzw/{domain}/point_13__view_e2b1bd0bbf344902bea242bcd2bfba45__{domain}_fixated.png\x00pa3ofhvvLzw/{domain}/point_140__view_20a0c1671ff5485da75261be763ef9db__{domain}_fixated.pngpa3ofhvvLzw/{domain}/point_140__view_3b9c05000fcf40d3b4e5255626303b39__{domain}_fixated.pngpa3ofhvvLzw/{domain}/point_140__view_e35ea8c84afd45869ef2434b420072e4__{domain}_fixated.pngpa3ofhvvLzw/{domain}/point_141__view_00be6a3da05445bbb3b411fa774a3448__{domain}_fixated.pngpa3ofhvvLzw/{domain}/point_141__view_646002c368734698a42fab3232a1039a__{domain}_fixated.pngpa3ofhvvLzw/{domain}/point_141__view_827a2d0be84e41868be3b10d670441bf__{domain}_fixated.pngpa3ofhvvLzw/{domain}/point_141__view_ab2198f82bd74f4f917d15f1ae9db8f2__{domain}_fixated.pngpa3ofhvvLzw/{domain}/point_141__view_ca1c1fa850f34d8492def93ebfdda01d__{domain}_fixated.pngpa3ofhvvLzw/{domain}/point_142__view_20a0c1671ff5485da75261be763ef9db__{domain}_fixated.pngpa3ofhvvLzw/{domain}/point_142__view_341e14cc33c44cd48cbe1230272270db__{domain}_fixated.pngpa3ofhvvLzw/{domain}/point_142__view_3b9c05000fcf40d3b4e5255626303b39__{domain}_fixated.pngpa3ofhvvLzw/{domain}/point_142__view_7cc913e4f8b3446497b0bd2c4e848674__{domain}_fixated.pngpa3ofhvvLzw/{domain}/point_142__view_bdafdf26f6c04a478d51b26a10fc7488__{domain}_fixated.pngpa3ofhvvLzw/{domain}/point_142__view_e35ea8c84afd45869ef2434b420072e4__{domain}_fixated.pngpa3ofhvvLzw/{domain}/point_143__view_341e14cc33c44cd48cbe1230272270db__{domain}_fixated.pngpa3ofhvvLzw/{domain}/point_143__view_3b9c05000fcf40d3b4e5255626303b39__{domain}_fixated.pngpa3ofhvvLzw/{domain}/point_143__view_50dbfa23f49345ea8fa6110958d49f71__{domain}_fixated.pngpa3ofhvvLzw/{domain}/point_143__view_7cc913e4f8b3446497b0bd2c4e848674__{domain}_fixated.pngpa3ofhvvLzw/{domain}/point_143__view_bdafdf26f6c04a478d51b26a10fc7488__{domain}_fixated.pngpa3ofhvvLzw/{domain}/point_143__view_e35ea8c84afd45869ef2434b420072e4__{domain}_fixated.pngpa3ofhvvLzw/{domain}/point_144__view_0dabb087739b4decbca522ea41d11e2b__{domain}_fixated.pngpa3ofhvvLzw/{domain}/point_144__view_33c1240bc276484b91c56a080e19bc0b__{domain}_fixated.pngpa3ofhvvLzw/{domain}/point_144__view_ca1c1fa850f34d8492def93ebfdda01d__{domain}_fixated.pngpa3ofhvvLzw/{domain}/point_145__view_20a0c1671ff5485da75261be763ef9db__{domain}_fixated.pngpa3ofhvvLzw/{domain}/point_145__view_341e14cc33c44cd48cbe1230272270db__{domain}_fixated.pngpa3ofhvvLzw/{domain}/point_145__view_3b9c05000fcf40d3b4e5255626303b39__{domain}_fixated.pngpa3ofhvvLzw/{domain}/point_146__view_695df6af2970408dae4e29bb6b4d45a1__{domain}_fixated.pngpa3ofhvvLzw/{domain}/point_146__view_9312509783424e2c82ed5c10ad350084__{domain}_fixated.pngpa3ofhvvLzw/{domain}/point_146__view_a6ff7ea9259a4d30b3851d811a42bc81__{domain}_fixated.pngpa3ofhvvLzw/{domain}/point_147__view_0dabb087739b4decbca522ea41d11e2b__{domain}_fixated.pngpa3ofhvvLzw/{domain}/point_147__view_33c1240bc276484b91c56a080e19bc0b__{domain}_fixated.pngpa3ofhvvLzw/{domain}/point_147__view_9312509783424e2c82ed5c10ad350084__{domain}_fixated.pngpa3ofhvvLzw/{domain}/point_147__view_ca1c1fa850f34d8492def93ebfdda01d__{domain}_fixated.pngpa3ofhvvLzw/{domain}/point_148__view_0dabb087739b4decbca522ea41d11e2b__{domain}_fixated.pngpa3ofhvvLzw/{domain}/point_148__view_33c1240bc276484b91c56a080e19bc0b__{domain}_fixated.pngpa3ofhvvLzw/{domain}/point_148__view_ca1c1fa850f34d8492def93ebfdda01d__{domain}_fixated.pngpa3ofhvvLzw/{domain}/point_149__view_0dabb087739b4decbca522ea41d11e2b__{domain}_fixated.pngpa3ofhvvLzw/{domain}/point_149__view_30e2b3dfb71d4c5cadb454f55f18dad7__{domain}_fixated.pngpa3ofhvvLzw/{domain}/point_149__view_33c1240bc276484b91c56a080e19bc0b__{domain}_fixated.pngpa3ofhvvLzw/{domain}/point_149__view_53b0970d28744d21ba03ff9bfe2cf20e__{domain}_fixated.pngpa3ofhvvLzw/{domain}/point_149__view_9312509783424e2c82ed5c10ad350084__{domain}_fixated.pngpa3ofhvvLzw/{domain}/point_149__view_9675bde56b2b4b3cbc9f4f48ffdff5a0__{domain}_fixated.pngpa3ofhvvLzw/{domain}/point_149__view_a6ff7ea9259a4d30b3851d811a42bc81__{domain}_fixated.pngpa3ofhvvLzw/{domain}/point_14__view_4aa83e63f5e54cf18aa96220e6472dbc__{domain}_fixated.png\x00pa3ofhvvLzw/{domain}/point_14__view_ab2198f82bd74f4f917d15f1ae9db8f2__{domain}_fixated.png\x00pa3ofhvvLzw/{domain}/point_150__view_827a2d0be84e41868be3b10d670441bf__{domain}_fixated.pngpa3ofhvvLzw/{domain}/point_150__view_e2b1bd0bbf344902bea242bcd2bfba45__{domain}_fixated.pngpa3ofhvvLzw/{domain}/point_151__view_3b9c05000fcf40d3b4e5255626303b39__{domain}_fixated.pngpa3ofhvvLzw/{domain}/point_151__view_50dbfa23f49345ea8fa6110958d49f71__{domain}_fixated.pngpa3ofhvvLzw/{domain}/point_151__view_5882b50dd9144bff89cb5f7d16638355__{domain}_fixated.pngpa3ofhvvLzw/{domain}/point_151__view_d699402350db4c8784d0152f99a4d238__{domain}_fixated.pngpa3ofhvvLzw/{domain}/point_152__view_5882b50dd9144bff89cb5f7d16638355__{domain}_fixated.pngpa3ofhvvLzw/{domain}/point_152__view_7cc913e4f8b3446497b0bd2c4e848674__{domain}_fixated.pngpa3ofhvvLzw/{domain}/point_152__view_bdafdf26f6c04a478d51b26a10fc7488__{domain}_fixated.pngpa3ofhvvLzw/{domain}/point_153__view_0dabb087739b4decbca522ea41d11e2b__{domain}_fixated.pngpa3ofhvvLzw/{domain}/point_153__view_33c1240bc276484b91c56a080e19bc0b__{domain}_fixated.pngpa3ofhvvLzw/{domain}/point_153__view_695df6af2970408dae4e29bb6b4d45a1__{domain}_fixated.pngpa3ofhvvLzw/{domain}/point_153__view_ca1c1fa850f34d8492def93ebfdda01d__{domain}_fixated.pngpa3ofhvvLzw/{domain}/point_154__view_20a0c1671ff5485da75261be763ef9db__{domain}_fixated.pngpa3ofhvvLzw/{domain}/point_154__view_3b9c05000fcf40d3b4e5255626303b39__{domain}_fixated.pngpa3ofhvvLzw/{domain}/point_154__view_7cc913e4f8b3446497b0bd2c4e848674__{domain}_fixated.pngpa3ofhvvLzw/{domain}/point_154__view_bdafdf26f6c04a478d51b26a10fc7488__{domain}_fixated.pngpa3ofhvvLzw/{domain}/point_155__view_20a0c1671ff5485da75261be763ef9db__{domain}_fixated.pngpa3ofhvvLzw/{domain}/point_155__view_341e14cc33c44cd48cbe1230272270db__{domain}_fixated.pngpa3ofhvvLzw/{domain}/point_155__view_3b9c05000fcf40d3b4e5255626303b39__{domain}_fixated.pngpa3ofhvvLzw/{domain}/point_155__view_7cc913e4f8b3446497b0bd2c4e848674__{domain}_fixated.pngpa3ofhvvLzw/{domain}/point_155__view_e35ea8c84afd45869ef2434b420072e4__{domain}_fixated.pngpa3ofhvvLzw/{domain}/point_156__view_4aa83e63f5e54cf18aa96220e6472dbc__{domain}_fixated.pngpa3ofhvvLzw/{domain}/point_156__view_8549a19947f34117a7c4ae8f48681d81__{domain}_fixated.pngpa3ofhvvLzw/{domain}/point_157__view_5882b50dd9144bff89cb5f7d16638355__{domain}_fixated.pngpa3ofhvvLzw/{domain}/point_157__view_7cc913e4f8b3446497b0bd2c4e848674__{domain}_fixated.pngpa3ofhvvLzw/{domain}/point_157__view_bdafdf26f6c04a478d51b26a10fc7488__{domain}_fixated.pngpa3ofhvvLzw/{domain}/point_158__view_646002c368734698a42fab3232a1039a__{domain}_fixated.pngpa3ofhvvLzw/{domain}/point_158__view_e2b1bd0bbf344902bea242bcd2bfba45__{domain}_fixated.pngpa3ofhvvLzw/{domain}/point_159__view_695df6af2970408dae4e29bb6b4d45a1__{domain}_fixated.pngpa3ofhvvLzw/{domain}/point_159__view_9675bde56b2b4b3cbc9f4f48ffdff5a0__{domain}_fixated.pngpa3ofhvvLzw/{domain}/point_15__view_20a0c1671ff5485da75261be763ef9db__{domain}_fixated.png\x00pa3ofhvvLzw/{domain}/point_15__view_3b9c05000fcf40d3b4e5255626303b39__{domain}_fixated.png\x00pa3ofhvvLzw/{domain}/point_15__view_7cc913e4f8b3446497b0bd2c4e848674__{domain}_fixated.png\x00pa3ofhvvLzw/{domain}/point_15__view_bdafdf26f6c04a478d51b26a10fc7488__{domain}_fixated.png\x00pa3ofhvvLzw/{domain}/point_160__view_20a0c1671ff5485da75261be763ef9db__{domain}_fixated.pngpa3ofhvvLzw/{domain}/point_160__view_3b9c05000fcf40d3b4e5255626303b39__{domain}_fixated.pngpa3ofhvvLzw/{domain}/point_160__view_5882b50dd9144bff89cb5f7d16638355__{domain}_fixated.pngpa3ofhvvLzw/{domain}/point_160__view_7cc913e4f8b3446497b0bd2c4e848674__{domain}_fixated.pngpa3ofhvvLzw/{domain}/point_160__view_bdafdf26f6c04a478d51b26a10fc7488__{domain}_fixated.pngpa3ofhvvLzw/{domain}/point_160__view_e35ea8c84afd45869ef2434b420072e4__{domain}_fixated.pngpa3ofhvvLzw/{domain}/point_161__view_50dbfa23f49345ea8fa6110958d49f71__{domain}_fixated.pngpa3ofhvvLzw/{domain}/point_161__view_bdafdf26f6c04a478d51b26a10fc7488__{domain}_fixated.pngpa3ofhvvLzw/{domain}/point_161__view_e35ea8c84afd45869ef2434b420072e4__{domain}_fixated.pngpa3ofhvvLzw/{domain}/point_162__view_20a0c1671ff5485da75261be763ef9db__{domain}_fixated.pngpa3ofhvvLzw/{domain}/point_162__view_341e14cc33c44cd48cbe1230272270db__{domain}_fixated.pngpa3ofhvvLzw/{domain}/point_162__view_3b9c05000fcf40d3b4e5255626303b39__{domain}_fixated.pngpa3ofhvvLzw/{domain}/point_162__view_5882b50dd9144bff89cb5f7d16638355__{domain}_fixated.pngpa3ofhvvLzw/{domain}/point_162__view_7cc913e4f8b3446497b0bd2c4e848674__{domain}_fixated.pngpa3ofhvvLzw/{domain}/point_162__view_bdafdf26f6c04a478d51b26a10fc7488__{domain}_fixated.pngpa3ofhvvLzw/{domain}/point_162__view_e35ea8c84afd45869ef2434b420072e4__{domain}_fixated.pngpa3ofhvvLzw/{domain}/point_163__view_0dabb087739b4decbca522ea41d11e2b__{domain}_fixated.pngpa3ofhvvLzw/{domain}/point_163__view_33c1240bc276484b91c56a080e19bc0b__{domain}_fixated.pngpa3ofhvvLzw/{domain}/point_163__view_a6ff7ea9259a4d30b3851d811a42bc81__{domain}_fixated.pngpa3ofhvvLzw/{domain}/point_163__view_ab2198f82bd74f4f917d15f1ae9db8f2__{domain}_fixated.pngpa3ofhvvLzw/{domain}/point_163__view_ca1c1fa850f34d8492def93ebfdda01d__{domain}_fixated.pngpa3ofhvvLzw/{domain}/point_163__view_e2b1bd0bbf344902bea242bcd2bfba45__{domain}_fixated.pngpa3ofhvvLzw/{domain}/point_164__view_25c8ed4db050433c8d2888f6519fb03c__{domain}_fixated.pngpa3ofhvvLzw/{domain}/point_164__view_30e2b3dfb71d4c5cadb454f55f18dad7__{domain}_fixated.pngpa3ofhvvLzw/{domain}/point_164__view_4aa83e63f5e54cf18aa96220e6472dbc__{domain}_fixated.pngpa3ofhvvLzw/{domain}/point_164__view_9675bde56b2b4b3cbc9f4f48ffdff5a0__{domain}_fixated.pngpa3ofhvvLzw/{domain}/point_164__view_a6ff7ea9259a4d30b3851d811a42bc81__{domain}_fixated.pngpa3ofhvvLzw/{domain}/point_165__view_0dabb087739b4decbca522ea41d11e2b__{domain}_fixated.pngpa3ofhvvLzw/{domain}/point_165__view_ca1c1fa850f34d8492def93ebfdda01d__{domain}_fixated.pngpa3ofhvvLzw/{domain}/point_166__view_646002c368734698a42fab3232a1039a__{domain}_fixated.pngpa3ofhvvLzw/{domain}/point_166__view_e2b1bd0bbf344902bea242bcd2bfba45__{domain}_fixated.pngpa3ofhvvLzw/{domain}/point_167__view_0dabb087739b4decbca522ea41d11e2b__{domain}_fixated.pngpa3ofhvvLzw/{domain}/point_167__view_4aa83e63f5e54cf18aa96220e6472dbc__{domain}_fixated.pngpa3ofhvvLzw/{domain}/point_167__view_53b0970d28744d21ba03ff9bfe2cf20e__{domain}_fixated.pngpa3ofhvvLzw/{domain}/point_167__view_9312509783424e2c82ed5c10ad350084__{domain}_fixated.pngpa3ofhvvLzw/{domain}/point_167__view_d9bf19f531ac478ba48be1c481bee6e4__{domain}_fixated.pngpa3ofhvvLzw/{domain}/point_168__view_20a0c1671ff5485da75261be763ef9db__{domain}_fixated.pngpa3ofhvvLzw/{domain}/point_168__view_341e14cc33c44cd48cbe1230272270db__{domain}_fixated.pngpa3ofhvvLzw/{domain}/point_168__view_3b9c05000fcf40d3b4e5255626303b39__{domain}_fixated.pngpa3ofhvvLzw/{domain}/point_168__view_7cc913e4f8b3446497b0bd2c4e848674__{domain}_fixated.pngpa3ofhvvLzw/{domain}/point_168__view_bdafdf26f6c04a478d51b26a10fc7488__{domain}_fixated.pngpa3ofhvvLzw/{domain}/point_168__view_e35ea8c84afd45869ef2434b420072e4__{domain}_fixated.pngpa3ofhvvLzw/{domain}/point_169__view_30e2b3dfb71d4c5cadb454f55f18dad7__{domain}_fixated.pngpa3ofhvvLzw/{domain}/point_169__view_33c1240bc276484b91c56a080e19bc0b__{domain}_fixated.pngpa3ofhvvLzw/{domain}/point_16__view_20a0c1671ff5485da75261be763ef9db__{domain}_fixated.png\x00pa3ofhvvLzw/{domain}/point_16__view_50dbfa23f49345ea8fa6110958d49f71__{domain}_fixated.png\x00pa3ofhvvLzw/{domain}/point_16__view_d699402350db4c8784d0152f99a4d238__{domain}_fixated.png\x00pa3ofhvvLzw/{domain}/point_16__view_ea6847c2cb9348178bd0697a5e92ecaa__{domain}_fixated.png\x00pa3ofhvvLzw/{domain}/point_170__view_20a0c1671ff5485da75261be763ef9db__{domain}_fixated.pngpa3ofhvvLzw/{domain}/point_170__view_3b9c05000fcf40d3b4e5255626303b39__{domain}_fixated.pngpa3ofhvvLzw/{domain}/point_170__view_50dbfa23f49345ea8fa6110958d49f71__{domain}_fixated.pngpa3ofhvvLzw/{domain}/point_170__view_5882b50dd9144bff89cb5f7d16638355__{domain}_fixated.pngpa3ofhvvLzw/{domain}/point_170__view_d699402350db4c8784d0152f99a4d238__{domain}_fixated.pngpa3ofhvvLzw/{domain}/point_171__view_53b0970d28744d21ba03ff9bfe2cf20e__{domain}_fixated.pngpa3ofhvvLzw/{domain}/point_171__view_9312509783424e2c82ed5c10ad350084__{domain}_fixated.pngpa3ofhvvLzw/{domain}/point_171__view_a6ff7ea9259a4d30b3851d811a42bc81__{domain}_fixated.pngpa3ofhvvLzw/{domain}/point_172__view_53b0970d28744d21ba03ff9bfe2cf20e__{domain}_fixated.pngpa3ofhvvLzw/{domain}/point_172__view_9312509783424e2c82ed5c10ad350084__{domain}_fixated.pngpa3ofhvvLzw/{domain}/point_173__view_341e14cc33c44cd48cbe1230272270db__{domain}_fixated.pngpa3ofhvvLzw/{domain}/point_173__view_50dbfa23f49345ea8fa6110958d49f71__{domain}_fixated.pngpa3ofhvvLzw/{domain}/point_174__view_ab2198f82bd74f4f917d15f1ae9db8f2__{domain}_fixated.pngpa3ofhvvLzw/{domain}/point_174__view_e2b1bd0bbf344902bea242bcd2bfba45__{domain}_fixated.pngpa3ofhvvLzw/{domain}/point_175__view_20a0c1671ff5485da75261be763ef9db__{domain}_fixated.pngpa3ofhvvLzw/{domain}/point_175__view_7cc913e4f8b3446497b0bd2c4e848674__{domain}_fixated.pngpa3ofhvvLzw/{domain}/point_175__view_bdafdf26f6c04a478d51b26a10fc7488__{domain}_fixated.pngpa3ofhvvLzw/{domain}/point_176__view_341e14cc33c44cd48cbe1230272270db__{domain}_fixated.pngpa3ofhvvLzw/{domain}/point_176__view_bdafdf26f6c04a478d51b26a10fc7488__{domain}_fixated.pngpa3ofhvvLzw/{domain}/point_177__view_5882b50dd9144bff89cb5f7d16638355__{domain}_fixated.pngpa3ofhvvLzw/{domain}/point_177__view_7cc913e4f8b3446497b0bd2c4e848674__{domain}_fixated.pngpa3ofhvvLzw/{domain}/point_177__view_bdafdf26f6c04a478d51b26a10fc7488__{domain}_fixated.pngpa3ofhvvLzw/{domain}/point_178__view_341e14cc33c44cd48cbe1230272270db__{domain}_fixated.pngpa3ofhvvLzw/{domain}/point_178__view_e35ea8c84afd45869ef2434b420072e4__{domain}_fixated.pngpa3ofhvvLzw/{domain}/point_179__view_00be6a3da05445bbb3b411fa774a3448__{domain}_fixated.pngpa3ofhvvLzw/{domain}/point_179__view_646002c368734698a42fab3232a1039a__{domain}_fixated.pngpa3ofhvvLzw/{domain}/point_179__view_827a2d0be84e41868be3b10d670441bf__{domain}_fixated.pngpa3ofhvvLzw/{domain}/point_179__view_ab2198f82bd74f4f917d15f1ae9db8f2__{domain}_fixated.pngpa3ofhvvLzw/{domain}/point_179__view_ca1c1fa850f34d8492def93ebfdda01d__{domain}_fixated.pngpa3ofhvvLzw/{domain}/point_179__view_e2b1bd0bbf344902bea242bcd2bfba45__{domain}_fixated.pngpa3ofhvvLzw/{domain}/point_17__view_4aa83e63f5e54cf18aa96220e6472dbc__{domain}_fixated.png\x00pa3ofhvvLzw/{domain}/point_17__view_ca1c1fa850f34d8492def93ebfdda01d__{domain}_fixated.png\x00pa3ofhvvLzw/{domain}/point_180__view_25c8ed4db050433c8d2888f6519fb03c__{domain}_fixated.pngpa3ofhvvLzw/{domain}/point_180__view_30e2b3dfb71d4c5cadb454f55f18dad7__{domain}_fixated.pngpa3ofhvvLzw/{domain}/point_180__view_9675bde56b2b4b3cbc9f4f48ffdff5a0__{domain}_fixated.pngpa3ofhvvLzw/{domain}/point_180__view_a6ff7ea9259a4d30b3851d811a42bc81__{domain}_fixated.pngpa3ofhvvLzw/{domain}/point_181__view_53b0970d28744d21ba03ff9bfe2cf20e__{domain}_fixated.pngpa3ofhvvLzw/{domain}/point_181__view_9312509783424e2c82ed5c10ad350084__{domain}_fixated.pngpa3ofhvvLzw/{domain}/point_182__view_646002c368734698a42fab3232a1039a__{domain}_fixated.pngpa3ofhvvLzw/{domain}/point_182__view_695df6af2970408dae4e29bb6b4d45a1__{domain}_fixated.pngpa3ofhvvLzw/{domain}/point_182__view_827a2d0be84e41868be3b10d670441bf__{domain}_fixated.pngpa3ofhvvLzw/{domain}/point_182__view_e2b1bd0bbf344902bea242bcd2bfba45__{domain}_fixated.pngpa3ofhvvLzw/{domain}/point_183__view_695df6af2970408dae4e29bb6b4d45a1__{domain}_fixated.pngpa3ofhvvLzw/{domain}/point_183__view_ab2198f82bd74f4f917d15f1ae9db8f2__{domain}_fixated.pngpa3ofhvvLzw/{domain}/point_184__view_3b9c05000fcf40d3b4e5255626303b39__{domain}_fixated.pngpa3ofhvvLzw/{domain}/point_184__view_5882b50dd9144bff89cb5f7d16638355__{domain}_fixated.pngpa3ofhvvLzw/{domain}/point_185__view_00be6a3da05445bbb3b411fa774a3448__{domain}_fixated.pngpa3ofhvvLzw/{domain}/point_185__view_ab2198f82bd74f4f917d15f1ae9db8f2__{domain}_fixated.pngpa3ofhvvLzw/{domain}/point_185__view_ca1c1fa850f34d8492def93ebfdda01d__{domain}_fixated.pngpa3ofhvvLzw/{domain}/point_186__view_695df6af2970408dae4e29bb6b4d45a1__{domain}_fixated.pngpa3ofhvvLzw/{domain}/point_186__view_ca1c1fa850f34d8492def93ebfdda01d__{domain}_fixated.pngpa3ofhvvLzw/{domain}/point_187__view_20a0c1671ff5485da75261be763ef9db__{domain}_fixated.pngpa3ofhvvLzw/{domain}/point_187__view_341e14cc33c44cd48cbe1230272270db__{domain}_fixated.pngpa3ofhvvLzw/{domain}/point_187__view_3b9c05000fcf40d3b4e5255626303b39__{domain}_fixated.pngpa3ofhvvLzw/{domain}/point_187__view_e35ea8c84afd45869ef2434b420072e4__{domain}_fixated.pngpa3ofhvvLzw/{domain}/point_188__view_20a0c1671ff5485da75261be763ef9db__{domain}_fixated.pngpa3ofhvvLzw/{domain}/point_188__view_341e14cc33c44cd48cbe1230272270db__{domain}_fixated.pngpa3ofhvvLzw/{domain}/point_188__view_3b9c05000fcf40d3b4e5255626303b39__{domain}_fixated.pngpa3ofhvvLzw/{domain}/point_188__view_7cc913e4f8b3446497b0bd2c4e848674__{domain}_fixated.pngpa3ofhvvLzw/{domain}/point_188__view_e35ea8c84afd45869ef2434b420072e4__{domain}_fixated.pngpa3ofhvvLzw/{domain}/point_189__view_341e14cc33c44cd48cbe1230272270db__{domain}_fixated.pngpa3ofhvvLzw/{domain}/point_189__view_e35ea8c84afd45869ef2434b420072e4__{domain}_fixated.pngpa3ofhvvLzw/{domain}/point_18__view_00be6a3da05445bbb3b411fa774a3448__{domain}_fixated.png\x00pa3ofhvvLzw/{domain}/point_18__view_0dabb087739b4decbca522ea41d11e2b__{domain}_fixated.png\x00pa3ofhvvLzw/{domain}/point_18__view_30e2b3dfb71d4c5cadb454f55f18dad7__{domain}_fixated.png\x00pa3ofhvvLzw/{domain}/point_18__view_9312509783424e2c82ed5c10ad350084__{domain}_fixated.png\x00pa3ofhvvLzw/{domain}/point_18__view_ab2198f82bd74f4f917d15f1ae9db8f2__{domain}_fixated.png\x00pa3ofhvvLzw/{domain}/point_18__view_e2b1bd0bbf344902bea242bcd2bfba45__{domain}_fixated.png\x00pa3ofhvvLzw/{domain}/point_190__view_7cc913e4f8b3446497b0bd2c4e848674__{domain}_fixated.pngpa3ofhvvLzw/{domain}/point_190__view_bdafdf26f6c04a478d51b26a10fc7488__{domain}_fixated.pngpa3ofhvvLzw/{domain}/point_191__view_646002c368734698a42fab3232a1039a__{domain}_fixated.pngpa3ofhvvLzw/{domain}/point_191__view_695df6af2970408dae4e29bb6b4d45a1__{domain}_fixated.pngpa3ofhvvLzw/{domain}/point_191__view_827a2d0be84e41868be3b10d670441bf__{domain}_fixated.pngpa3ofhvvLzw/{domain}/point_191__view_e2b1bd0bbf344902bea242bcd2bfba45__{domain}_fixated.pngpa3ofhvvLzw/{domain}/point_192__view_53b0970d28744d21ba03ff9bfe2cf20e__{domain}_fixated.pngpa3ofhvvLzw/{domain}/point_192__view_9312509783424e2c82ed5c10ad350084__{domain}_fixated.pngpa3ofhvvLzw/{domain}/point_193__view_5882b50dd9144bff89cb5f7d16638355__{domain}_fixated.pngpa3ofhvvLzw/{domain}/point_193__view_bdafdf26f6c04a478d51b26a10fc7488__{domain}_fixated.pngpa3ofhvvLzw/{domain}/point_194__view_646002c368734698a42fab3232a1039a__{domain}_fixated.pngpa3ofhvvLzw/{domain}/point_194__view_827a2d0be84e41868be3b10d670441bf__{domain}_fixated.pngpa3ofhvvLzw/{domain}/point_194__view_ab2198f82bd74f4f917d15f1ae9db8f2__{domain}_fixated.pngpa3ofhvvLzw/{domain}/point_194__view_ca1c1fa850f34d8492def93ebfdda01d__{domain}_fixated.pngpa3ofhvvLzw/{domain}/point_195__view_d699402350db4c8784d0152f99a4d238__{domain}_fixated.pngpa3ofhvvLzw/{domain}/point_195__view_ea6847c2cb9348178bd0697a5e92ecaa__{domain}_fixated.pngpa3ofhvvLzw/{domain}/point_196__view_341e14cc33c44cd48cbe1230272270db__{domain}_fixated.pngpa3ofhvvLzw/{domain}/point_196__view_50dbfa23f49345ea8fa6110958d49f71__{domain}_fixated.pngpa3ofhvvLzw/{domain}/point_196__view_5882b50dd9144bff89cb5f7d16638355__{domain}_fixated.pngpa3ofhvvLzw/{domain}/point_196__view_e35ea8c84afd45869ef2434b420072e4__{domain}_fixated.pngpa3ofhvvLzw/{domain}/point_197__view_30e2b3dfb71d4c5cadb454f55f18dad7__{domain}_fixated.pngpa3ofhvvLzw/{domain}/point_197__view_9312509783424e2c82ed5c10ad350084__{domain}_fixated.pngpa3ofhvvLzw/{domain}/point_197__view_ca1c1fa850f34d8492def93ebfdda01d__{domain}_fixated.pngpa3ofhvvLzw/{domain}/point_197__view_d9bf19f531ac478ba48be1c481bee6e4__{domain}_fixated.pngpa3ofhvvLzw/{domain}/point_198__view_695df6af2970408dae4e29bb6b4d45a1__{domain}_fixated.pngpa3ofhvvLzw/{domain}/point_198__view_9675bde56b2b4b3cbc9f4f48ffdff5a0__{domain}_fixated.pngpa3ofhvvLzw/{domain}/point_199__view_9675bde56b2b4b3cbc9f4f48ffdff5a0__{domain}_fixated.pngpa3ofhvvLzw/{domain}/point_199__view_a6ff7ea9259a4d30b3851d811a42bc81__{domain}_fixated.pngpa3ofhvvLzw/{domain}/point_19__view_646002c368734698a42fab3232a1039a__{domain}_fixated.png\x00pa3ofhvvLzw/{domain}/point_19__view_695df6af2970408dae4e29bb6b4d45a1__{domain}_fixated.png\x00pa3ofhvvLzw/{domain}/point_19__view_827a2d0be84e41868be3b10d670441bf__{domain}_fixated.png\x00pa3ofhvvLzw/{domain}/point_19__view_e2b1bd0bbf344902bea242bcd2bfba45__{domain}_fixated.png\x00pa3ofhvvLzw/{domain}/point_1__view_3aa2e8c84ebd4d588279a6c6cd5bc618__{domain}_fixated.png\x00\x00pa3ofhvvLzw/{domain}/point_1__view_76df9ef10ad44218b85588588f11520f__{domain}_fixated.png\x00\x00pa3ofhvvLzw/{domain}/point_200__view_ab2198f82bd74f4f917d15f1ae9db8f2__{domain}_fixated.pngpa3ofhvvLzw/{domain}/point_200__view_ca1c1fa850f34d8492def93ebfdda01d__{domain}_fixated.pngpa3ofhvvLzw/{domain}/point_201__view_33c1240bc276484b91c56a080e19bc0b__{domain}_fixated.pngpa3ofhvvLzw/{domain}/point_201__view_ab2198f82bd74f4f917d15f1ae9db8f2__{domain}_fixated.pngpa3ofhvvLzw/{domain}/point_202__view_0dabb087739b4decbca522ea41d11e2b__{domain}_fixated.pngpa3ofhvvLzw/{domain}/point_202__view_30e2b3dfb71d4c5cadb454f55f18dad7__{domain}_fixated.pngpa3ofhvvLzw/{domain}/point_202__view_53b0970d28744d21ba03ff9bfe2cf20e__{domain}_fixated.pngpa3ofhvvLzw/{domain}/point_202__view_9312509783424e2c82ed5c10ad350084__{domain}_fixated.pngpa3ofhvvLzw/{domain}/point_202__view_ab2198f82bd74f4f917d15f1ae9db8f2__{domain}_fixated.pngpa3ofhvvLzw/{domain}/point_202__view_ca1c1fa850f34d8492def93ebfdda01d__{domain}_fixated.pngpa3ofhvvLzw/{domain}/point_203__view_50dbfa23f49345ea8fa6110958d49f71__{domain}_fixated.pngpa3ofhvvLzw/{domain}/point_203__view_d699402350db4c8784d0152f99a4d238__{domain}_fixated.pngpa3ofhvvLzw/{domain}/point_204__view_00be6a3da05445bbb3b411fa774a3448__{domain}_fixated.pngpa3ofhvvLzw/{domain}/point_204__view_827a2d0be84e41868be3b10d670441bf__{domain}_fixated.pngpa3ofhvvLzw/{domain}/point_204__view_ab2198f82bd74f4f917d15f1ae9db8f2__{domain}_fixated.pngpa3ofhvvLzw/{domain}/point_205__view_5882b50dd9144bff89cb5f7d16638355__{domain}_fixated.pngpa3ofhvvLzw/{domain}/point_205__view_bdafdf26f6c04a478d51b26a10fc7488__{domain}_fixated.pngpa3ofhvvLzw/{domain}/point_206__view_20a0c1671ff5485da75261be763ef9db__{domain}_fixated.pngpa3ofhvvLzw/{domain}/point_206__view_341e14cc33c44cd48cbe1230272270db__{domain}_fixated.pngpa3ofhvvLzw/{domain}/point_206__view_3b9c05000fcf40d3b4e5255626303b39__{domain}_fixated.pngpa3ofhvvLzw/{domain}/point_206__view_e35ea8c84afd45869ef2434b420072e4__{domain}_fixated.pngpa3ofhvvLzw/{domain}/point_207__view_3b9c05000fcf40d3b4e5255626303b39__{domain}_fixated.pngpa3ofhvvLzw/{domain}/point_207__view_50dbfa23f49345ea8fa6110958d49f71__{domain}_fixated.pngpa3ofhvvLzw/{domain}/point_208__view_0dabb087739b4decbca522ea41d11e2b__{domain}_fixated.pngpa3ofhvvLzw/{domain}/point_208__view_33c1240bc276484b91c56a080e19bc0b__{domain}_fixated.pngpa3ofhvvLzw/{domain}/point_208__view_4aa83e63f5e54cf18aa96220e6472dbc__{domain}_fixated.pngpa3ofhvvLzw/{domain}/point_208__view_8549a19947f34117a7c4ae8f48681d81__{domain}_fixated.pngpa3ofhvvLzw/{domain}/point_209__view_30e2b3dfb71d4c5cadb454f55f18dad7__{domain}_fixated.pngpa3ofhvvLzw/{domain}/point_209__view_4aa83e63f5e54cf18aa96220e6472dbc__{domain}_fixated.pngpa3ofhvvLzw/{domain}/point_20__view_20a0c1671ff5485da75261be763ef9db__{domain}_fixated.png\x00pa3ofhvvLzw/{domain}/point_20__view_3b9c05000fcf40d3b4e5255626303b39__{domain}_fixated.png\x00pa3ofhvvLzw/{domain}/point_20__view_7cc913e4f8b3446497b0bd2c4e848674__{domain}_fixated.png\x00pa3ofhvvLzw/{domain}/point_20__view_bdafdf26f6c04a478d51b26a10fc7488__{domain}_fixated.png\x00pa3ofhvvLzw/{domain}/point_20__view_e35ea8c84afd45869ef2434b420072e4__{domain}_fixated.png\x00pa3ofhvvLzw/{domain}/point_210__view_ab2198f82bd74f4f917d15f1ae9db8f2__{domain}_fixated.pngpa3ofhvvLzw/{domain}/point_210__view_ca1c1fa850f34d8492def93ebfdda01d__{domain}_fixated.pngpa3ofhvvLzw/{domain}/point_211__view_4aa83e63f5e54cf18aa96220e6472dbc__{domain}_fixated.pngpa3ofhvvLzw/{domain}/point_211__view_827a2d0be84e41868be3b10d670441bf__{domain}_fixated.pngpa3ofhvvLzw/{domain}/point_211__view_ab2198f82bd74f4f917d15f1ae9db8f2__{domain}_fixated.pngpa3ofhvvLzw/{domain}/point_211__view_ca1c1fa850f34d8492def93ebfdda01d__{domain}_fixated.pngpa3ofhvvLzw/{domain}/point_212__view_50dbfa23f49345ea8fa6110958d49f71__{domain}_fixated.pngpa3ofhvvLzw/{domain}/point_212__view_bdafdf26f6c04a478d51b26a10fc7488__{domain}_fixated.pngpa3ofhvvLzw/{domain}/point_213__view_9675bde56b2b4b3cbc9f4f48ffdff5a0__{domain}_fixated.pngpa3ofhvvLzw/{domain}/point_213__view_a6ff7ea9259a4d30b3851d811a42bc81__{domain}_fixated.pngpa3ofhvvLzw/{domain}/point_214__view_5882b50dd9144bff89cb5f7d16638355__{domain}_fixated.pngpa3ofhvvLzw/{domain}/point_214__view_d699402350db4c8784d0152f99a4d238__{domain}_fixated.pngpa3ofhvvLzw/{domain}/point_215__view_5882b50dd9144bff89cb5f7d16638355__{domain}_fixated.pngpa3ofhvvLzw/{domain}/point_215__view_7cc913e4f8b3446497b0bd2c4e848674__{domain}_fixated.pngpa3ofhvvLzw/{domain}/point_215__view_bdafdf26f6c04a478d51b26a10fc7488__{domain}_fixated.pngpa3ofhvvLzw/{domain}/point_215__view_e35ea8c84afd45869ef2434b420072e4__{domain}_fixated.pngpa3ofhvvLzw/{domain}/point_216__view_33c1240bc276484b91c56a080e19bc0b__{domain}_fixated.pngpa3ofhvvLzw/{domain}/point_216__view_695df6af2970408dae4e29bb6b4d45a1__{domain}_fixated.pngpa3ofhvvLzw/{domain}/point_216__view_a6ff7ea9259a4d30b3851d811a42bc81__{domain}_fixated.pngpa3ofhvvLzw/{domain}/point_217__view_4aa83e63f5e54cf18aa96220e6472dbc__{domain}_fixated.pngpa3ofhvvLzw/{domain}/point_217__view_ca1c1fa850f34d8492def93ebfdda01d__{domain}_fixated.pngpa3ofhvvLzw/{domain}/point_218__view_20a0c1671ff5485da75261be763ef9db__{domain}_fixated.pngpa3ofhvvLzw/{domain}/point_218__view_341e14cc33c44cd48cbe1230272270db__{domain}_fixated.pngpa3ofhvvLzw/{domain}/point_219__view_0dabb087739b4decbca522ea41d11e2b__{domain}_fixated.pngpa3ofhvvLzw/{domain}/point_219__view_33c1240bc276484b91c56a080e19bc0b__{domain}_fixated.pngpa3ofhvvLzw/{domain}/point_219__view_9675bde56b2b4b3cbc9f4f48ffdff5a0__{domain}_fixated.pngpa3ofhvvLzw/{domain}/point_219__view_a6ff7ea9259a4d30b3851d811a42bc81__{domain}_fixated.pngpa3ofhvvLzw/{domain}/point_219__view_ca1c1fa850f34d8492def93ebfdda01d__{domain}_fixated.pngpa3ofhvvLzw/{domain}/point_21__view_20a0c1671ff5485da75261be763ef9db__{domain}_fixated.png\x00pa3ofhvvLzw/{domain}/point_21__view_341e14cc33c44cd48cbe1230272270db__{domain}_fixated.png\x00pa3ofhvvLzw/{domain}/point_21__view_3b9c05000fcf40d3b4e5255626303b39__{domain}_fixated.png\x00pa3ofhvvLzw/{domain}/point_21__view_7cc913e4f8b3446497b0bd2c4e848674__{domain}_fixated.png\x00pa3ofhvvLzw/{domain}/point_21__view_e35ea8c84afd45869ef2434b420072e4__{domain}_fixated.png\x00pa3ofhvvLzw/{domain}/point_220__view_50dbfa23f49345ea8fa6110958d49f71__{domain}_fixated.pngpa3ofhvvLzw/{domain}/point_220__view_d699402350db4c8784d0152f99a4d238__{domain}_fixated.pngpa3ofhvvLzw/{domain}/point_220__view_ea6847c2cb9348178bd0697a5e92ecaa__{domain}_fixated.pngpa3ofhvvLzw/{domain}/point_221__view_00be6a3da05445bbb3b411fa774a3448__{domain}_fixated.pngpa3ofhvvLzw/{domain}/point_221__view_0dabb087739b4decbca522ea41d11e2b__{domain}_fixated.pngpa3ofhvvLzw/{domain}/point_221__view_30e2b3dfb71d4c5cadb454f55f18dad7__{domain}_fixated.pngpa3ofhvvLzw/{domain}/point_221__view_33c1240bc276484b91c56a080e19bc0b__{domain}_fixated.pngpa3ofhvvLzw/{domain}/point_221__view_53b0970d28744d21ba03ff9bfe2cf20e__{domain}_fixated.pngpa3ofhvvLzw/{domain}/point_221__view_9312509783424e2c82ed5c10ad350084__{domain}_fixated.pngpa3ofhvvLzw/{domain}/point_221__view_9675bde56b2b4b3cbc9f4f48ffdff5a0__{domain}_fixated.pngpa3ofhvvLzw/{domain}/point_221__view_a6ff7ea9259a4d30b3851d811a42bc81__{domain}_fixated.pngpa3ofhvvLzw/{domain}/point_221__view_ca1c1fa850f34d8492def93ebfdda01d__{domain}_fixated.pngpa3ofhvvLzw/{domain}/point_222__view_646002c368734698a42fab3232a1039a__{domain}_fixated.pngpa3ofhvvLzw/{domain}/point_222__view_827a2d0be84e41868be3b10d670441bf__{domain}_fixated.pngpa3ofhvvLzw/{domain}/point_222__view_e2b1bd0bbf344902bea242bcd2bfba45__{domain}_fixated.pngpa3ofhvvLzw/{domain}/point_223__view_20a0c1671ff5485da75261be763ef9db__{domain}_fixated.pngpa3ofhvvLzw/{domain}/point_223__view_341e14cc33c44cd48cbe1230272270db__{domain}_fixated.pngpa3ofhvvLzw/{domain}/point_223__view_3b9c05000fcf40d3b4e5255626303b39__{domain}_fixated.pngpa3ofhvvLzw/{domain}/point_223__view_7cc913e4f8b3446497b0bd2c4e848674__{domain}_fixated.pngpa3ofhvvLzw/{domain}/point_223__view_e35ea8c84afd45869ef2434b420072e4__{domain}_fixated.pngpa3ofhvvLzw/{domain}/point_224__view_5882b50dd9144bff89cb5f7d16638355__{domain}_fixated.pngpa3ofhvvLzw/{domain}/point_224__view_7cc913e4f8b3446497b0bd2c4e848674__{domain}_fixated.pngpa3ofhvvLzw/{domain}/point_224__view_bdafdf26f6c04a478d51b26a10fc7488__{domain}_fixated.pngpa3ofhvvLzw/{domain}/point_225__view_341e14cc33c44cd48cbe1230272270db__{domain}_fixated.pngpa3ofhvvLzw/{domain}/point_225__view_50dbfa23f49345ea8fa6110958d49f71__{domain}_fixated.pngpa3ofhvvLzw/{domain}/point_225__view_7cc913e4f8b3446497b0bd2c4e848674__{domain}_fixated.pngpa3ofhvvLzw/{domain}/point_225__view_bdafdf26f6c04a478d51b26a10fc7488__{domain}_fixated.pngpa3ofhvvLzw/{domain}/point_225__view_e35ea8c84afd45869ef2434b420072e4__{domain}_fixated.pngpa3ofhvvLzw/{domain}/point_226__view_50dbfa23f49345ea8fa6110958d49f71__{domain}_fixated.pngpa3ofhvvLzw/{domain}/point_226__view_5882b50dd9144bff89cb5f7d16638355__{domain}_fixated.pngpa3ofhvvLzw/{domain}/point_226__view_7cc913e4f8b3446497b0bd2c4e848674__{domain}_fixated.pngpa3ofhvvLzw/{domain}/point_226__view_bdafdf26f6c04a478d51b26a10fc7488__{domain}_fixated.pngpa3ofhvvLzw/{domain}/point_226__view_e35ea8c84afd45869ef2434b420072e4__{domain}_fixated.pngpa3ofhvvLzw/{domain}/point_227__view_695df6af2970408dae4e29bb6b4d45a1__{domain}_fixated.pngpa3ofhvvLzw/{domain}/point_227__view_ab2198f82bd74f4f917d15f1ae9db8f2__{domain}_fixated.pngpa3ofhvvLzw/{domain}/point_227__view_ca1c1fa850f34d8492def93ebfdda01d__{domain}_fixated.pngpa3ofhvvLzw/{domain}/point_228__view_695df6af2970408dae4e29bb6b4d45a1__{domain}_fixated.pngpa3ofhvvLzw/{domain}/point_228__view_827a2d0be84e41868be3b10d670441bf__{domain}_fixated.pngpa3ofhvvLzw/{domain}/point_228__view_ca1c1fa850f34d8492def93ebfdda01d__{domain}_fixated.pngpa3ofhvvLzw/{domain}/point_229__view_646002c368734698a42fab3232a1039a__{domain}_fixated.pngpa3ofhvvLzw/{domain}/point_229__view_827a2d0be84e41868be3b10d670441bf__{domain}_fixated.pngpa3ofhvvLzw/{domain}/point_229__view_e2b1bd0bbf344902bea242bcd2bfba45__{domain}_fixated.pngpa3ofhvvLzw/{domain}/point_22__view_53b0970d28744d21ba03ff9bfe2cf20e__{domain}_fixated.png\x00pa3ofhvvLzw/{domain}/point_22__view_9312509783424e2c82ed5c10ad350084__{domain}_fixated.png\x00pa3ofhvvLzw/{domain}/point_230__view_25c8ed4db050433c8d2888f6519fb03c__{domain}_fixated.pngpa3ofhvvLzw/{domain}/point_230__view_9675bde56b2b4b3cbc9f4f48ffdff5a0__{domain}_fixated.pngpa3ofhvvLzw/{domain}/point_230__view_a6ff7ea9259a4d30b3851d811a42bc81__{domain}_fixated.pngpa3ofhvvLzw/{domain}/point_231__view_50dbfa23f49345ea8fa6110958d49f71__{domain}_fixated.pngpa3ofhvvLzw/{domain}/point_231__view_5882b50dd9144bff89cb5f7d16638355__{domain}_fixated.pngpa3ofhvvLzw/{domain}/point_231__view_7cc913e4f8b3446497b0bd2c4e848674__{domain}_fixated.pngpa3ofhvvLzw/{domain}/point_231__view_bdafdf26f6c04a478d51b26a10fc7488__{domain}_fixated.pngpa3ofhvvLzw/{domain}/point_231__view_e35ea8c84afd45869ef2434b420072e4__{domain}_fixated.pngpa3ofhvvLzw/{domain}/point_232__view_25c8ed4db050433c8d2888f6519fb03c__{domain}_fixated.pngpa3ofhvvLzw/{domain}/point_232__view_9312509783424e2c82ed5c10ad350084__{domain}_fixated.pngpa3ofhvvLzw/{domain}/point_232__view_9675bde56b2b4b3cbc9f4f48ffdff5a0__{domain}_fixated.pngpa3ofhvvLzw/{domain}/point_233__view_30e2b3dfb71d4c5cadb454f55f18dad7__{domain}_fixated.pngpa3ofhvvLzw/{domain}/point_233__view_53b0970d28744d21ba03ff9bfe2cf20e__{domain}_fixated.pngpa3ofhvvLzw/{domain}/point_233__view_8549a19947f34117a7c4ae8f48681d81__{domain}_fixated.pngpa3ofhvvLzw/{domain}/point_233__view_9312509783424e2c82ed5c10ad350084__{domain}_fixated.pngpa3ofhvvLzw/{domain}/point_234__view_20a0c1671ff5485da75261be763ef9db__{domain}_fixated.pngpa3ofhvvLzw/{domain}/point_234__view_5882b50dd9144bff89cb5f7d16638355__{domain}_fixated.pngpa3ofhvvLzw/{domain}/point_234__view_d699402350db4c8784d0152f99a4d238__{domain}_fixated.pngpa3ofhvvLzw/{domain}/point_234__view_e35ea8c84afd45869ef2434b420072e4__{domain}_fixated.pngpa3ofhvvLzw/{domain}/point_235__view_20a0c1671ff5485da75261be763ef9db__{domain}_fixated.pngpa3ofhvvLzw/{domain}/point_235__view_341e14cc33c44cd48cbe1230272270db__{domain}_fixated.pngpa3ofhvvLzw/{domain}/point_235__view_3b9c05000fcf40d3b4e5255626303b39__{domain}_fixated.pngpa3ofhvvLzw/{domain}/point_235__view_7cc913e4f8b3446497b0bd2c4e848674__{domain}_fixated.pngpa3ofhvvLzw/{domain}/point_235__view_bdafdf26f6c04a478d51b26a10fc7488__{domain}_fixated.pngpa3ofhvvLzw/{domain}/point_235__view_e35ea8c84afd45869ef2434b420072e4__{domain}_fixated.pngpa3ofhvvLzw/{domain}/point_236__view_50dbfa23f49345ea8fa6110958d49f71__{domain}_fixated.pngpa3ofhvvLzw/{domain}/point_236__view_5882b50dd9144bff89cb5f7d16638355__{domain}_fixated.pngpa3ofhvvLzw/{domain}/point_237__view_20a0c1671ff5485da75261be763ef9db__{domain}_fixated.pngpa3ofhvvLzw/{domain}/point_237__view_341e14cc33c44cd48cbe1230272270db__{domain}_fixated.pngpa3ofhvvLzw/{domain}/point_237__view_e35ea8c84afd45869ef2434b420072e4__{domain}_fixated.pngpa3ofhvvLzw/{domain}/point_238__view_53b0970d28744d21ba03ff9bfe2cf20e__{domain}_fixated.pngpa3ofhvvLzw/{domain}/point_238__view_9312509783424e2c82ed5c10ad350084__{domain}_fixated.pngpa3ofhvvLzw/{domain}/point_238__view_9675bde56b2b4b3cbc9f4f48ffdff5a0__{domain}_fixated.pngpa3ofhvvLzw/{domain}/point_239__view_0dabb087739b4decbca522ea41d11e2b__{domain}_fixated.pngpa3ofhvvLzw/{domain}/point_239__view_33c1240bc276484b91c56a080e19bc0b__{domain}_fixated.pngpa3ofhvvLzw/{domain}/point_239__view_695df6af2970408dae4e29bb6b4d45a1__{domain}_fixated.pngpa3ofhvvLzw/{domain}/point_239__view_ca1c1fa850f34d8492def93ebfdda01d__{domain}_fixated.pngpa3ofhvvLzw/{domain}/point_23__view_25c8ed4db050433c8d2888f6519fb03c__{domain}_fixated.png\x00pa3ofhvvLzw/{domain}/point_23__view_9675bde56b2b4b3cbc9f4f48ffdff5a0__{domain}_fixated.png\x00pa3ofhvvLzw/{domain}/point_240__view_30e2b3dfb71d4c5cadb454f55f18dad7__{domain}_fixated.pngpa3ofhvvLzw/{domain}/point_240__view_53b0970d28744d21ba03ff9bfe2cf20e__{domain}_fixated.pngpa3ofhvvLzw/{domain}/point_240__view_9312509783424e2c82ed5c10ad350084__{domain}_fixated.pngpa3ofhvvLzw/{domain}/point_241__view_ab2198f82bd74f4f917d15f1ae9db8f2__{domain}_fixated.pngpa3ofhvvLzw/{domain}/point_241__view_e2b1bd0bbf344902bea242bcd2bfba45__{domain}_fixated.pngpa3ofhvvLzw/{domain}/point_242__view_0dabb087739b4decbca522ea41d11e2b__{domain}_fixated.pngpa3ofhvvLzw/{domain}/point_242__view_30e2b3dfb71d4c5cadb454f55f18dad7__{domain}_fixated.pngpa3ofhvvLzw/{domain}/point_243__view_0dabb087739b4decbca522ea41d11e2b__{domain}_fixated.pngpa3ofhvvLzw/{domain}/point_243__view_25c8ed4db050433c8d2888f6519fb03c__{domain}_fixated.pngpa3ofhvvLzw/{domain}/point_243__view_33c1240bc276484b91c56a080e19bc0b__{domain}_fixated.pngpa3ofhvvLzw/{domain}/point_243__view_695df6af2970408dae4e29bb6b4d45a1__{domain}_fixated.pngpa3ofhvvLzw/{domain}/point_243__view_9675bde56b2b4b3cbc9f4f48ffdff5a0__{domain}_fixated.pngpa3ofhvvLzw/{domain}/point_243__view_a6ff7ea9259a4d30b3851d811a42bc81__{domain}_fixated.pngpa3ofhvvLzw/{domain}/point_243__view_ca1c1fa850f34d8492def93ebfdda01d__{domain}_fixated.pngpa3ofhvvLzw/{domain}/point_244__view_646002c368734698a42fab3232a1039a__{domain}_fixated.pngpa3ofhvvLzw/{domain}/point_244__view_695df6af2970408dae4e29bb6b4d45a1__{domain}_fixated.pngpa3ofhvvLzw/{domain}/point_244__view_827a2d0be84e41868be3b10d670441bf__{domain}_fixated.pngpa3ofhvvLzw/{domain}/point_244__view_e2b1bd0bbf344902bea242bcd2bfba45__{domain}_fixated.pngpa3ofhvvLzw/{domain}/point_245__view_33c1240bc276484b91c56a080e19bc0b__{domain}_fixated.pngpa3ofhvvLzw/{domain}/point_245__view_4aa83e63f5e54cf18aa96220e6472dbc__{domain}_fixated.pngpa3ofhvvLzw/{domain}/point_245__view_695df6af2970408dae4e29bb6b4d45a1__{domain}_fixated.pngpa3ofhvvLzw/{domain}/point_246__view_646002c368734698a42fab3232a1039a__{domain}_fixated.pngpa3ofhvvLzw/{domain}/point_246__view_695df6af2970408dae4e29bb6b4d45a1__{domain}_fixated.pngpa3ofhvvLzw/{domain}/point_246__view_827a2d0be84e41868be3b10d670441bf__{domain}_fixated.pngpa3ofhvvLzw/{domain}/point_246__view_ca1c1fa850f34d8492def93ebfdda01d__{domain}_fixated.pngpa3ofhvvLzw/{domain}/point_247__view_20a0c1671ff5485da75261be763ef9db__{domain}_fixated.pngpa3ofhvvLzw/{domain}/point_247__view_341e14cc33c44cd48cbe1230272270db__{domain}_fixated.pngpa3ofhvvLzw/{domain}/point_247__view_3b9c05000fcf40d3b4e5255626303b39__{domain}_fixated.pngpa3ofhvvLzw/{domain}/point_247__view_5882b50dd9144bff89cb5f7d16638355__{domain}_fixated.pngpa3ofhvvLzw/{domain}/point_247__view_7cc913e4f8b3446497b0bd2c4e848674__{domain}_fixated.pngpa3ofhvvLzw/{domain}/point_247__view_bdafdf26f6c04a478d51b26a10fc7488__{domain}_fixated.pngpa3ofhvvLzw/{domain}/point_247__view_e35ea8c84afd45869ef2434b420072e4__{domain}_fixated.pngpa3ofhvvLzw/{domain}/point_248__view_76df9ef10ad44218b85588588f11520f__{domain}_fixated.pngpa3ofhvvLzw/{domain}/point_248__view_9675bde56b2b4b3cbc9f4f48ffdff5a0__{domain}_fixated.pngpa3ofhvvLzw/{domain}/point_248__view_a6ff7ea9259a4d30b3851d811a42bc81__{domain}_fixated.pngpa3ofhvvLzw/{domain}/point_248__view_e2b1bd0bbf344902bea242bcd2bfba45__{domain}_fixated.pngpa3ofhvvLzw/{domain}/point_248__view_f4efc806a42e47758bb53a223ec24c40__{domain}_fixated.pngpa3ofhvvLzw/{domain}/point_249__view_0dabb087739b4decbca522ea41d11e2b__{domain}_fixated.pngpa3ofhvvLzw/{domain}/point_249__view_30e2b3dfb71d4c5cadb454f55f18dad7__{domain}_fixated.pngpa3ofhvvLzw/{domain}/point_249__view_ab2198f82bd74f4f917d15f1ae9db8f2__{domain}_fixated.pngpa3ofhvvLzw/{domain}/point_24__view_695df6af2970408dae4e29bb6b4d45a1__{domain}_fixated.png\x00pa3ofhvvLzw/{domain}/point_24__view_ca1c1fa850f34d8492def93ebfdda01d__{domain}_fixated.png\x00pa3ofhvvLzw/{domain}/point_250__view_20a0c1671ff5485da75261be763ef9db__{domain}_fixated.pngpa3ofhvvLzw/{domain}/point_250__view_341e14cc33c44cd48cbe1230272270db__{domain}_fixated.pngpa3ofhvvLzw/{domain}/point_250__view_3b9c05000fcf40d3b4e5255626303b39__{domain}_fixated.pngpa3ofhvvLzw/{domain}/point_250__view_7cc913e4f8b3446497b0bd2c4e848674__{domain}_fixated.pngpa3ofhvvLzw/{domain}/point_250__view_bdafdf26f6c04a478d51b26a10fc7488__{domain}_fixated.pngpa3ofhvvLzw/{domain}/point_250__view_e35ea8c84afd45869ef2434b420072e4__{domain}_fixated.pngpa3ofhvvLzw/{domain}/point_251__view_53b0970d28744d21ba03ff9bfe2cf20e__{domain}_fixated.pngpa3ofhvvLzw/{domain}/point_251__view_9312509783424e2c82ed5c10ad350084__{domain}_fixated.pngpa3ofhvvLzw/{domain}/point_251__view_9675bde56b2b4b3cbc9f4f48ffdff5a0__{domain}_fixated.pngpa3ofhvvLzw/{domain}/point_251__view_a6ff7ea9259a4d30b3851d811a42bc81__{domain}_fixated.pngpa3ofhvvLzw/{domain}/point_252__view_341e14cc33c44cd48cbe1230272270db__{domain}_fixated.pngpa3ofhvvLzw/{domain}/point_252__view_e35ea8c84afd45869ef2434b420072e4__{domain}_fixated.pngpa3ofhvvLzw/{domain}/point_253__view_20a0c1671ff5485da75261be763ef9db__{domain}_fixated.pngpa3ofhvvLzw/{domain}/point_253__view_341e14cc33c44cd48cbe1230272270db__{domain}_fixated.pngpa3ofhvvLzw/{domain}/point_253__view_3b9c05000fcf40d3b4e5255626303b39__{domain}_fixated.pngpa3ofhvvLzw/{domain}/point_253__view_5882b50dd9144bff89cb5f7d16638355__{domain}_fixated.pngpa3ofhvvLzw/{domain}/point_253__view_7cc913e4f8b3446497b0bd2c4e848674__{domain}_fixated.pngpa3ofhvvLzw/{domain}/point_253__view_bdafdf26f6c04a478d51b26a10fc7488__{domain}_fixated.pngpa3ofhvvLzw/{domain}/point_253__view_e35ea8c84afd45869ef2434b420072e4__{domain}_fixated.pngpa3ofhvvLzw/{domain}/point_254__view_7cc913e4f8b3446497b0bd2c4e848674__{domain}_fixated.pngpa3ofhvvLzw/{domain}/point_254__view_bdafdf26f6c04a478d51b26a10fc7488__{domain}_fixated.pngpa3ofhvvLzw/{domain}/point_254__view_e35ea8c84afd45869ef2434b420072e4__{domain}_fixated.pngpa3ofhvvLzw/{domain}/point_255__view_0dabb087739b4decbca522ea41d11e2b__{domain}_fixated.pngpa3ofhvvLzw/{domain}/point_255__view_25c8ed4db050433c8d2888f6519fb03c__{domain}_fixated.pngpa3ofhvvLzw/{domain}/point_255__view_33c1240bc276484b91c56a080e19bc0b__{domain}_fixated.pngpa3ofhvvLzw/{domain}/point_255__view_695df6af2970408dae4e29bb6b4d45a1__{domain}_fixated.pngpa3ofhvvLzw/{domain}/point_255__view_9675bde56b2b4b3cbc9f4f48ffdff5a0__{domain}_fixated.pngpa3ofhvvLzw/{domain}/point_255__view_a6ff7ea9259a4d30b3851d811a42bc81__{domain}_fixated.pngpa3ofhvvLzw/{domain}/point_255__view_ca1c1fa850f34d8492def93ebfdda01d__{domain}_fixated.pngpa3ofhvvLzw/{domain}/point_256__view_20a0c1671ff5485da75261be763ef9db__{domain}_fixated.pngpa3ofhvvLzw/{domain}/point_256__view_3b9c05000fcf40d3b4e5255626303b39__{domain}_fixated.pngpa3ofhvvLzw/{domain}/point_256__view_7cc913e4f8b3446497b0bd2c4e848674__{domain}_fixated.pngpa3ofhvvLzw/{domain}/point_257__view_646002c368734698a42fab3232a1039a__{domain}_fixated.pngpa3ofhvvLzw/{domain}/point_257__view_695df6af2970408dae4e29bb6b4d45a1__{domain}_fixated.pngpa3ofhvvLzw/{domain}/point_257__view_827a2d0be84e41868be3b10d670441bf__{domain}_fixated.pngpa3ofhvvLzw/{domain}/point_257__view_e2b1bd0bbf344902bea242bcd2bfba45__{domain}_fixated.pngpa3ofhvvLzw/{domain}/point_258__view_9675bde56b2b4b3cbc9f4f48ffdff5a0__{domain}_fixated.pngpa3ofhvvLzw/{domain}/point_258__view_a6ff7ea9259a4d30b3851d811a42bc81__{domain}_fixated.pngpa3ofhvvLzw/{domain}/point_259__view_20a0c1671ff5485da75261be763ef9db__{domain}_fixated.pngpa3ofhvvLzw/{domain}/point_259__view_341e14cc33c44cd48cbe1230272270db__{domain}_fixated.pngpa3ofhvvLzw/{domain}/point_259__view_3b9c05000fcf40d3b4e5255626303b39__{domain}_fixated.pngpa3ofhvvLzw/{domain}/point_259__view_7cc913e4f8b3446497b0bd2c4e848674__{domain}_fixated.pngpa3ofhvvLzw/{domain}/point_259__view_bdafdf26f6c04a478d51b26a10fc7488__{domain}_fixated.pngpa3ofhvvLzw/{domain}/point_259__view_e35ea8c84afd45869ef2434b420072e4__{domain}_fixated.pngpa3ofhvvLzw/{domain}/point_25__view_0dabb087739b4decbca522ea41d11e2b__{domain}_fixated.png\x00pa3ofhvvLzw/{domain}/point_25__view_33c1240bc276484b91c56a080e19bc0b__{domain}_fixated.png\x00pa3ofhvvLzw/{domain}/point_25__view_695df6af2970408dae4e29bb6b4d45a1__{domain}_fixated.png\x00pa3ofhvvLzw/{domain}/point_25__view_ca1c1fa850f34d8492def93ebfdda01d__{domain}_fixated.png\x00pa3ofhvvLzw/{domain}/point_260__view_4aa83e63f5e54cf18aa96220e6472dbc__{domain}_fixated.pngpa3ofhvvLzw/{domain}/point_260__view_695df6af2970408dae4e29bb6b4d45a1__{domain}_fixated.pngpa3ofhvvLzw/{domain}/point_260__view_ca1c1fa850f34d8492def93ebfdda01d__{domain}_fixated.pngpa3ofhvvLzw/{domain}/point_261__view_7cc913e4f8b3446497b0bd2c4e848674__{domain}_fixated.pngpa3ofhvvLzw/{domain}/point_261__view_bdafdf26f6c04a478d51b26a10fc7488__{domain}_fixated.pngpa3ofhvvLzw/{domain}/point_262__view_20a0c1671ff5485da75261be763ef9db__{domain}_fixated.pngpa3ofhvvLzw/{domain}/point_262__view_341e14cc33c44cd48cbe1230272270db__{domain}_fixated.pngpa3ofhvvLzw/{domain}/point_262__view_3b9c05000fcf40d3b4e5255626303b39__{domain}_fixated.pngpa3ofhvvLzw/{domain}/point_262__view_5882b50dd9144bff89cb5f7d16638355__{domain}_fixated.pngpa3ofhvvLzw/{domain}/point_262__view_7cc913e4f8b3446497b0bd2c4e848674__{domain}_fixated.pngpa3ofhvvLzw/{domain}/point_262__view_bdafdf26f6c04a478d51b26a10fc7488__{domain}_fixated.pngpa3ofhvvLzw/{domain}/point_262__view_e35ea8c84afd45869ef2434b420072e4__{domain}_fixated.pngpa3ofhvvLzw/{domain}/point_263__view_25c8ed4db050433c8d2888f6519fb03c__{domain}_fixated.pngpa3ofhvvLzw/{domain}/point_263__view_30e2b3dfb71d4c5cadb454f55f18dad7__{domain}_fixated.pngpa3ofhvvLzw/{domain}/point_263__view_4aa83e63f5e54cf18aa96220e6472dbc__{domain}_fixated.pngpa3ofhvvLzw/{domain}/point_263__view_9675bde56b2b4b3cbc9f4f48ffdff5a0__{domain}_fixated.pngpa3ofhvvLzw/{domain}/point_263__view_a6ff7ea9259a4d30b3851d811a42bc81__{domain}_fixated.pngpa3ofhvvLzw/{domain}/point_264__view_20a0c1671ff5485da75261be763ef9db__{domain}_fixated.pngpa3ofhvvLzw/{domain}/point_264__view_341e14cc33c44cd48cbe1230272270db__{domain}_fixated.pngpa3ofhvvLzw/{domain}/point_264__view_50dbfa23f49345ea8fa6110958d49f71__{domain}_fixated.pngpa3ofhvvLzw/{domain}/point_265__view_00be6a3da05445bbb3b411fa774a3448__{domain}_fixated.pngpa3ofhvvLzw/{domain}/point_265__view_646002c368734698a42fab3232a1039a__{domain}_fixated.pngpa3ofhvvLzw/{domain}/point_265__view_827a2d0be84e41868be3b10d670441bf__{domain}_fixated.pngpa3ofhvvLzw/{domain}/point_265__view_ab2198f82bd74f4f917d15f1ae9db8f2__{domain}_fixated.pngpa3ofhvvLzw/{domain}/point_265__view_ca1c1fa850f34d8492def93ebfdda01d__{domain}_fixated.pngpa3ofhvvLzw/{domain}/point_265__view_e2b1bd0bbf344902bea242bcd2bfba45__{domain}_fixated.pngpa3ofhvvLzw/{domain}/point_266__view_695df6af2970408dae4e29bb6b4d45a1__{domain}_fixated.pngpa3ofhvvLzw/{domain}/point_266__view_ca1c1fa850f34d8492def93ebfdda01d__{domain}_fixated.pngpa3ofhvvLzw/{domain}/point_267__view_30e2b3dfb71d4c5cadb454f55f18dad7__{domain}_fixated.pngpa3ofhvvLzw/{domain}/point_267__view_33c1240bc276484b91c56a080e19bc0b__{domain}_fixated.pngpa3ofhvvLzw/{domain}/point_267__view_53b0970d28744d21ba03ff9bfe2cf20e__{domain}_fixated.pngpa3ofhvvLzw/{domain}/point_267__view_9312509783424e2c82ed5c10ad350084__{domain}_fixated.pngpa3ofhvvLzw/{domain}/point_268__view_25c8ed4db050433c8d2888f6519fb03c__{domain}_fixated.pngpa3ofhvvLzw/{domain}/point_268__view_9675bde56b2b4b3cbc9f4f48ffdff5a0__{domain}_fixated.pngpa3ofhvvLzw/{domain}/point_269__view_20a0c1671ff5485da75261be763ef9db__{domain}_fixated.pngpa3ofhvvLzw/{domain}/point_269__view_341e14cc33c44cd48cbe1230272270db__{domain}_fixated.pngpa3ofhvvLzw/{domain}/point_26__view_50dbfa23f49345ea8fa6110958d49f71__{domain}_fixated.png\x00pa3ofhvvLzw/{domain}/point_26__view_5882b50dd9144bff89cb5f7d16638355__{domain}_fixated.png\x00pa3ofhvvLzw/{domain}/point_270__view_5882b50dd9144bff89cb5f7d16638355__{domain}_fixated.pngpa3ofhvvLzw/{domain}/point_270__view_d699402350db4c8784d0152f99a4d238__{domain}_fixated.pngpa3ofhvvLzw/{domain}/point_271__view_646002c368734698a42fab3232a1039a__{domain}_fixated.pngpa3ofhvvLzw/{domain}/point_271__view_695df6af2970408dae4e29bb6b4d45a1__{domain}_fixated.pngpa3ofhvvLzw/{domain}/point_271__view_827a2d0be84e41868be3b10d670441bf__{domain}_fixated.pngpa3ofhvvLzw/{domain}/point_271__view_e2b1bd0bbf344902bea242bcd2bfba45__{domain}_fixated.pngpa3ofhvvLzw/{domain}/point_272__view_646002c368734698a42fab3232a1039a__{domain}_fixated.pngpa3ofhvvLzw/{domain}/point_272__view_695df6af2970408dae4e29bb6b4d45a1__{domain}_fixated.pngpa3ofhvvLzw/{domain}/point_272__view_827a2d0be84e41868be3b10d670441bf__{domain}_fixated.pngpa3ofhvvLzw/{domain}/point_272__view_ca1c1fa850f34d8492def93ebfdda01d__{domain}_fixated.pngpa3ofhvvLzw/{domain}/point_273__view_50dbfa23f49345ea8fa6110958d49f71__{domain}_fixated.pngpa3ofhvvLzw/{domain}/point_273__view_5882b50dd9144bff89cb5f7d16638355__{domain}_fixated.pngpa3ofhvvLzw/{domain}/point_273__view_bdafdf26f6c04a478d51b26a10fc7488__{domain}_fixated.pngpa3ofhvvLzw/{domain}/point_274__view_20a0c1671ff5485da75261be763ef9db__{domain}_fixated.pngpa3ofhvvLzw/{domain}/point_274__view_3aa2e8c84ebd4d588279a6c6cd5bc618__{domain}_fixated.pngpa3ofhvvLzw/{domain}/point_274__view_3b9c05000fcf40d3b4e5255626303b39__{domain}_fixated.pngpa3ofhvvLzw/{domain}/point_274__view_7a4a5c985e7e4b5d8b3661653b680303__{domain}_fixated.pngpa3ofhvvLzw/{domain}/point_274__view_7cc913e4f8b3446497b0bd2c4e848674__{domain}_fixated.pngpa3ofhvvLzw/{domain}/point_275__view_20a0c1671ff5485da75261be763ef9db__{domain}_fixated.pngpa3ofhvvLzw/{domain}/point_275__view_341e14cc33c44cd48cbe1230272270db__{domain}_fixated.pngpa3ofhvvLzw/{domain}/point_275__view_e35ea8c84afd45869ef2434b420072e4__{domain}_fixated.pngpa3ofhvvLzw/{domain}/point_276__view_646002c368734698a42fab3232a1039a__{domain}_fixated.pngpa3ofhvvLzw/{domain}/point_276__view_695df6af2970408dae4e29bb6b4d45a1__{domain}_fixated.pngpa3ofhvvLzw/{domain}/point_276__view_827a2d0be84e41868be3b10d670441bf__{domain}_fixated.pngpa3ofhvvLzw/{domain}/point_276__view_e2b1bd0bbf344902bea242bcd2bfba45__{domain}_fixated.pngpa3ofhvvLzw/{domain}/point_277__view_0dabb087739b4decbca522ea41d11e2b__{domain}_fixated.pngpa3ofhvvLzw/{domain}/point_277__view_33c1240bc276484b91c56a080e19bc0b__{domain}_fixated.pngpa3ofhvvLzw/{domain}/point_277__view_ca1c1fa850f34d8492def93ebfdda01d__{domain}_fixated.pngpa3ofhvvLzw/{domain}/point_278__view_20a0c1671ff5485da75261be763ef9db__{domain}_fixated.pngpa3ofhvvLzw/{domain}/point_278__view_341e14cc33c44cd48cbe1230272270db__{domain}_fixated.pngpa3ofhvvLzw/{domain}/point_278__view_3b9c05000fcf40d3b4e5255626303b39__{domain}_fixated.pngpa3ofhvvLzw/{domain}/point_278__view_e35ea8c84afd45869ef2434b420072e4__{domain}_fixated.pngpa3ofhvvLzw/{domain}/point_279__view_20a0c1671ff5485da75261be763ef9db__{domain}_fixated.pngpa3ofhvvLzw/{domain}/point_279__view_341e14cc33c44cd48cbe1230272270db__{domain}_fixated.pngpa3ofhvvLzw/{domain}/point_279__view_e35ea8c84afd45869ef2434b420072e4__{domain}_fixated.pngpa3ofhvvLzw/{domain}/point_27__view_0dabb087739b4decbca522ea41d11e2b__{domain}_fixated.png\x00pa3ofhvvLzw/{domain}/point_27__view_4aa83e63f5e54cf18aa96220e6472dbc__{domain}_fixated.png\x00pa3ofhvvLzw/{domain}/point_27__view_53b0970d28744d21ba03ff9bfe2cf20e__{domain}_fixated.png\x00pa3ofhvvLzw/{domain}/point_27__view_9312509783424e2c82ed5c10ad350084__{domain}_fixated.png\x00pa3ofhvvLzw/{domain}/point_27__view_d9bf19f531ac478ba48be1c481bee6e4__{domain}_fixated.png\x00pa3ofhvvLzw/{domain}/point_280__view_30e2b3dfb71d4c5cadb454f55f18dad7__{domain}_fixated.pngpa3ofhvvLzw/{domain}/point_280__view_33c1240bc276484b91c56a080e19bc0b__{domain}_fixated.pngpa3ofhvvLzw/{domain}/point_280__view_4aa83e63f5e54cf18aa96220e6472dbc__{domain}_fixated.pngpa3ofhvvLzw/{domain}/point_280__view_695df6af2970408dae4e29bb6b4d45a1__{domain}_fixated.pngpa3ofhvvLzw/{domain}/point_280__view_a6ff7ea9259a4d30b3851d811a42bc81__{domain}_fixated.pngpa3ofhvvLzw/{domain}/point_281__view_33c1240bc276484b91c56a080e19bc0b__{domain}_fixated.pngpa3ofhvvLzw/{domain}/point_281__view_9312509783424e2c82ed5c10ad350084__{domain}_fixated.pngpa3ofhvvLzw/{domain}/point_281__view_d9bf19f531ac478ba48be1c481bee6e4__{domain}_fixated.pngpa3ofhvvLzw/{domain}/point_282__view_5882b50dd9144bff89cb5f7d16638355__{domain}_fixated.pngpa3ofhvvLzw/{domain}/point_282__view_7a4a5c985e7e4b5d8b3661653b680303__{domain}_fixated.pngpa3ofhvvLzw/{domain}/point_283__view_25c8ed4db050433c8d2888f6519fb03c__{domain}_fixated.pngpa3ofhvvLzw/{domain}/point_283__view_9675bde56b2b4b3cbc9f4f48ffdff5a0__{domain}_fixated.pngpa3ofhvvLzw/{domain}/point_283__view_a6ff7ea9259a4d30b3851d811a42bc81__{domain}_fixated.pngpa3ofhvvLzw/{domain}/point_284__view_4aa83e63f5e54cf18aa96220e6472dbc__{domain}_fixated.pngpa3ofhvvLzw/{domain}/point_284__view_8549a19947f34117a7c4ae8f48681d81__{domain}_fixated.pngpa3ofhvvLzw/{domain}/point_284__view_f4efc806a42e47758bb53a223ec24c40__{domain}_fixated.pngpa3ofhvvLzw/{domain}/point_285__view_ab2198f82bd74f4f917d15f1ae9db8f2__{domain}_fixated.pngpa3ofhvvLzw/{domain}/point_285__view_e2b1bd0bbf344902bea242bcd2bfba45__{domain}_fixated.pngpa3ofhvvLzw/{domain}/point_286__view_0dabb087739b4decbca522ea41d11e2b__{domain}_fixated.pngpa3ofhvvLzw/{domain}/point_286__view_ca1c1fa850f34d8492def93ebfdda01d__{domain}_fixated.pngpa3ofhvvLzw/{domain}/point_287__view_20a0c1671ff5485da75261be763ef9db__{domain}_fixated.pngpa3ofhvvLzw/{domain}/point_287__view_341e14cc33c44cd48cbe1230272270db__{domain}_fixated.pngpa3ofhvvLzw/{domain}/point_287__view_3b9c05000fcf40d3b4e5255626303b39__{domain}_fixated.pngpa3ofhvvLzw/{domain}/point_287__view_5882b50dd9144bff89cb5f7d16638355__{domain}_fixated.pngpa3ofhvvLzw/{domain}/point_287__view_7cc913e4f8b3446497b0bd2c4e848674__{domain}_fixated.pngpa3ofhvvLzw/{domain}/point_287__view_bdafdf26f6c04a478d51b26a10fc7488__{domain}_fixated.pngpa3ofhvvLzw/{domain}/point_287__view_e35ea8c84afd45869ef2434b420072e4__{domain}_fixated.pngpa3ofhvvLzw/{domain}/point_288__view_4aa83e63f5e54cf18aa96220e6472dbc__{domain}_fixated.pngpa3ofhvvLzw/{domain}/point_288__view_827a2d0be84e41868be3b10d670441bf__{domain}_fixated.pngpa3ofhvvLzw/{domain}/point_288__view_ab2198f82bd74f4f917d15f1ae9db8f2__{domain}_fixated.pngpa3ofhvvLzw/{domain}/point_288__view_ca1c1fa850f34d8492def93ebfdda01d__{domain}_fixated.pngpa3ofhvvLzw/{domain}/point_289__view_25c8ed4db050433c8d2888f6519fb03c__{domain}_fixated.pngpa3ofhvvLzw/{domain}/point_289__view_9675bde56b2b4b3cbc9f4f48ffdff5a0__{domain}_fixated.pngpa3ofhvvLzw/{domain}/point_289__view_a6ff7ea9259a4d30b3851d811a42bc81__{domain}_fixated.pngpa3ofhvvLzw/{domain}/point_28__view_20a0c1671ff5485da75261be763ef9db__{domain}_fixated.png\x00pa3ofhvvLzw/{domain}/point_28__view_341e14cc33c44cd48cbe1230272270db__{domain}_fixated.png\x00pa3ofhvvLzw/{domain}/point_28__view_e35ea8c84afd45869ef2434b420072e4__{domain}_fixated.png\x00pa3ofhvvLzw/{domain}/point_290__view_ab2198f82bd74f4f917d15f1ae9db8f2__{domain}_fixated.pngpa3ofhvvLzw/{domain}/point_290__view_ca1c1fa850f34d8492def93ebfdda01d__{domain}_fixated.pngpa3ofhvvLzw/{domain}/point_291__view_341e14cc33c44cd48cbe1230272270db__{domain}_fixated.pngpa3ofhvvLzw/{domain}/point_291__view_50dbfa23f49345ea8fa6110958d49f71__{domain}_fixated.pngpa3ofhvvLzw/{domain}/point_291__view_bdafdf26f6c04a478d51b26a10fc7488__{domain}_fixated.pngpa3ofhvvLzw/{domain}/point_291__view_e35ea8c84afd45869ef2434b420072e4__{domain}_fixated.pngpa3ofhvvLzw/{domain}/point_292__view_20a0c1671ff5485da75261be763ef9db__{domain}_fixated.pngpa3ofhvvLzw/{domain}/point_292__view_341e14cc33c44cd48cbe1230272270db__{domain}_fixated.pngpa3ofhvvLzw/{domain}/point_293__view_50dbfa23f49345ea8fa6110958d49f71__{domain}_fixated.pngpa3ofhvvLzw/{domain}/point_293__view_5882b50dd9144bff89cb5f7d16638355__{domain}_fixated.pngpa3ofhvvLzw/{domain}/point_294__view_20a0c1671ff5485da75261be763ef9db__{domain}_fixated.pngpa3ofhvvLzw/{domain}/point_294__view_3b9c05000fcf40d3b4e5255626303b39__{domain}_fixated.pngpa3ofhvvLzw/{domain}/point_294__view_5882b50dd9144bff89cb5f7d16638355__{domain}_fixated.pngpa3ofhvvLzw/{domain}/point_294__view_7a4a5c985e7e4b5d8b3661653b680303__{domain}_fixated.pngpa3ofhvvLzw/{domain}/point_294__view_7cc913e4f8b3446497b0bd2c4e848674__{domain}_fixated.pngpa3ofhvvLzw/{domain}/point_294__view_e35ea8c84afd45869ef2434b420072e4__{domain}_fixated.pngpa3ofhvvLzw/{domain}/point_295__view_0dabb087739b4decbca522ea41d11e2b__{domain}_fixated.pngpa3ofhvvLzw/{domain}/point_295__view_33c1240bc276484b91c56a080e19bc0b__{domain}_fixated.pngpa3ofhvvLzw/{domain}/point_295__view_ca1c1fa850f34d8492def93ebfdda01d__{domain}_fixated.pngpa3ofhvvLzw/{domain}/point_296__view_0dabb087739b4decbca522ea41d11e2b__{domain}_fixated.pngpa3ofhvvLzw/{domain}/point_296__view_33c1240bc276484b91c56a080e19bc0b__{domain}_fixated.pngpa3ofhvvLzw/{domain}/point_296__view_695df6af2970408dae4e29bb6b4d45a1__{domain}_fixated.pngpa3ofhvvLzw/{domain}/point_296__view_ca1c1fa850f34d8492def93ebfdda01d__{domain}_fixated.pngpa3ofhvvLzw/{domain}/point_297__view_30e2b3dfb71d4c5cadb454f55f18dad7__{domain}_fixated.pngpa3ofhvvLzw/{domain}/point_297__view_33c1240bc276484b91c56a080e19bc0b__{domain}_fixated.pngpa3ofhvvLzw/{domain}/point_297__view_53b0970d28744d21ba03ff9bfe2cf20e__{domain}_fixated.pngpa3ofhvvLzw/{domain}/point_297__view_827a2d0be84e41868be3b10d670441bf__{domain}_fixated.pngpa3ofhvvLzw/{domain}/point_297__view_9312509783424e2c82ed5c10ad350084__{domain}_fixated.pngpa3ofhvvLzw/{domain}/point_297__view_9675bde56b2b4b3cbc9f4f48ffdff5a0__{domain}_fixated.pngpa3ofhvvLzw/{domain}/point_297__view_a6ff7ea9259a4d30b3851d811a42bc81__{domain}_fixated.pngpa3ofhvvLzw/{domain}/point_297__view_e2b1bd0bbf344902bea242bcd2bfba45__{domain}_fixated.pngpa3ofhvvLzw/{domain}/point_298__view_53b0970d28744d21ba03ff9bfe2cf20e__{domain}_fixated.pngpa3ofhvvLzw/{domain}/point_298__view_9312509783424e2c82ed5c10ad350084__{domain}_fixated.pngpa3ofhvvLzw/{domain}/point_298__view_d9bf19f531ac478ba48be1c481bee6e4__{domain}_fixated.pngpa3ofhvvLzw/{domain}/point_299__view_20a0c1671ff5485da75261be763ef9db__{domain}_fixated.pngpa3ofhvvLzw/{domain}/point_299__view_341e14cc33c44cd48cbe1230272270db__{domain}_fixated.pngpa3ofhvvLzw/{domain}/point_299__view_3b9c05000fcf40d3b4e5255626303b39__{domain}_fixated.pngpa3ofhvvLzw/{domain}/point_299__view_50dbfa23f49345ea8fa6110958d49f71__{domain}_fixated.pngpa3ofhvvLzw/{domain}/point_299__view_5882b50dd9144bff89cb5f7d16638355__{domain}_fixated.pngpa3ofhvvLzw/{domain}/point_299__view_7cc913e4f8b3446497b0bd2c4e848674__{domain}_fixated.pngpa3ofhvvLzw/{domain}/point_299__view_bdafdf26f6c04a478d51b26a10fc7488__{domain}_fixated.pngpa3ofhvvLzw/{domain}/point_299__view_e35ea8c84afd45869ef2434b420072e4__{domain}_fixated.pngpa3ofhvvLzw/{domain}/point_29__view_25c8ed4db050433c8d2888f6519fb03c__{domain}_fixated.png\x00pa3ofhvvLzw/{domain}/point_29__view_9675bde56b2b4b3cbc9f4f48ffdff5a0__{domain}_fixated.png\x00pa3ofhvvLzw/{domain}/point_2__view_695df6af2970408dae4e29bb6b4d45a1__{domain}_fixated.png\x00\x00pa3ofhvvLzw/{domain}/point_2__view_ab2198f82bd74f4f917d15f1ae9db8f2__{domain}_fixated.png\x00\x00pa3ofhvvLzw/{domain}/point_2__view_ca1c1fa850f34d8492def93ebfdda01d__{domain}_fixated.png\x00\x00pa3ofhvvLzw/{domain}/point_300__view_00be6a3da05445bbb3b411fa774a3448__{domain}_fixated.pngpa3ofhvvLzw/{domain}/point_300__view_646002c368734698a42fab3232a1039a__{domain}_fixated.pngpa3ofhvvLzw/{domain}/point_300__view_695df6af2970408dae4e29bb6b4d45a1__{domain}_fixated.pngpa3ofhvvLzw/{domain}/point_300__view_827a2d0be84e41868be3b10d670441bf__{domain}_fixated.pngpa3ofhvvLzw/{domain}/point_300__view_ab2198f82bd74f4f917d15f1ae9db8f2__{domain}_fixated.pngpa3ofhvvLzw/{domain}/point_300__view_ca1c1fa850f34d8492def93ebfdda01d__{domain}_fixated.pngpa3ofhvvLzw/{domain}/point_300__view_e2b1bd0bbf344902bea242bcd2bfba45__{domain}_fixated.pngpa3ofhvvLzw/{domain}/point_301__view_341e14cc33c44cd48cbe1230272270db__{domain}_fixated.pngpa3ofhvvLzw/{domain}/point_301__view_3b9c05000fcf40d3b4e5255626303b39__{domain}_fixated.pngpa3ofhvvLzw/{domain}/point_301__view_50dbfa23f49345ea8fa6110958d49f71__{domain}_fixated.pngpa3ofhvvLzw/{domain}/point_301__view_5882b50dd9144bff89cb5f7d16638355__{domain}_fixated.pngpa3ofhvvLzw/{domain}/point_301__view_7cc913e4f8b3446497b0bd2c4e848674__{domain}_fixated.pngpa3ofhvvLzw/{domain}/point_301__view_bdafdf26f6c04a478d51b26a10fc7488__{domain}_fixated.pngpa3ofhvvLzw/{domain}/point_301__view_e35ea8c84afd45869ef2434b420072e4__{domain}_fixated.pngpa3ofhvvLzw/{domain}/point_302__view_76df9ef10ad44218b85588588f11520f__{domain}_fixated.pngpa3ofhvvLzw/{domain}/point_302__view_f4efc806a42e47758bb53a223ec24c40__{domain}_fixated.pngpa3ofhvvLzw/{domain}/point_303__view_00be6a3da05445bbb3b411fa774a3448__{domain}_fixated.pngpa3ofhvvLzw/{domain}/point_303__view_ab2198f82bd74f4f917d15f1ae9db8f2__{domain}_fixated.pngpa3ofhvvLzw/{domain}/point_304__view_341e14cc33c44cd48cbe1230272270db__{domain}_fixated.pngpa3ofhvvLzw/{domain}/point_304__view_50dbfa23f49345ea8fa6110958d49f71__{domain}_fixated.pngpa3ofhvvLzw/{domain}/point_304__view_5882b50dd9144bff89cb5f7d16638355__{domain}_fixated.pngpa3ofhvvLzw/{domain}/point_304__view_7cc913e4f8b3446497b0bd2c4e848674__{domain}_fixated.pngpa3ofhvvLzw/{domain}/point_304__view_bdafdf26f6c04a478d51b26a10fc7488__{domain}_fixated.pngpa3ofhvvLzw/{domain}/point_304__view_e35ea8c84afd45869ef2434b420072e4__{domain}_fixated.pngpa3ofhvvLzw/{domain}/point_305__view_646002c368734698a42fab3232a1039a__{domain}_fixated.pngpa3ofhvvLzw/{domain}/point_305__view_695df6af2970408dae4e29bb6b4d45a1__{domain}_fixated.pngpa3ofhvvLzw/{domain}/point_305__view_827a2d0be84e41868be3b10d670441bf__{domain}_fixated.pngpa3ofhvvLzw/{domain}/point_305__view_ab2198f82bd74f4f917d15f1ae9db8f2__{domain}_fixated.pngpa3ofhvvLzw/{domain}/point_305__view_e2b1bd0bbf344902bea242bcd2bfba45__{domain}_fixated.pngpa3ofhvvLzw/{domain}/point_306__view_341e14cc33c44cd48cbe1230272270db__{domain}_fixated.pngpa3ofhvvLzw/{domain}/point_306__view_bdafdf26f6c04a478d51b26a10fc7488__{domain}_fixated.pngpa3ofhvvLzw/{domain}/point_307__view_20a0c1671ff5485da75261be763ef9db__{domain}_fixated.pngpa3ofhvvLzw/{domain}/point_307__view_341e14cc33c44cd48cbe1230272270db__{domain}_fixated.pngpa3ofhvvLzw/{domain}/point_307__view_3b9c05000fcf40d3b4e5255626303b39__{domain}_fixated.pngpa3ofhvvLzw/{domain}/point_307__view_7cc913e4f8b3446497b0bd2c4e848674__{domain}_fixated.pngpa3ofhvvLzw/{domain}/point_307__view_bdafdf26f6c04a478d51b26a10fc7488__{domain}_fixated.pngpa3ofhvvLzw/{domain}/point_307__view_d699402350db4c8784d0152f99a4d238__{domain}_fixated.pngpa3ofhvvLzw/{domain}/point_307__view_e35ea8c84afd45869ef2434b420072e4__{domain}_fixated.pngpa3ofhvvLzw/{domain}/point_308__view_9312509783424e2c82ed5c10ad350084__{domain}_fixated.pngpa3ofhvvLzw/{domain}/point_308__view_a6ff7ea9259a4d30b3851d811a42bc81__{domain}_fixated.pngpa3ofhvvLzw/{domain}/point_308__view_f4efc806a42e47758bb53a223ec24c40__{domain}_fixated.pngpa3ofhvvLzw/{domain}/point_309__view_646002c368734698a42fab3232a1039a__{domain}_fixated.pngpa3ofhvvLzw/{domain}/point_309__view_e2b1bd0bbf344902bea242bcd2bfba45__{domain}_fixated.pngpa3ofhvvLzw/{domain}/point_30__view_ab2198f82bd74f4f917d15f1ae9db8f2__{domain}_fixated.png\x00pa3ofhvvLzw/{domain}/point_30__view_e2b1bd0bbf344902bea242bcd2bfba45__{domain}_fixated.png\x00pa3ofhvvLzw/{domain}/point_310__view_00be6a3da05445bbb3b411fa774a3448__{domain}_fixated.pngpa3ofhvvLzw/{domain}/point_310__view_ab2198f82bd74f4f917d15f1ae9db8f2__{domain}_fixated.pngpa3ofhvvLzw/{domain}/point_310__view_ca1c1fa850f34d8492def93ebfdda01d__{domain}_fixated.pngpa3ofhvvLzw/{domain}/point_311__view_0dabb087739b4decbca522ea41d11e2b__{domain}_fixated.pngpa3ofhvvLzw/{domain}/point_311__view_33c1240bc276484b91c56a080e19bc0b__{domain}_fixated.pngpa3ofhvvLzw/{domain}/point_311__view_695df6af2970408dae4e29bb6b4d45a1__{domain}_fixated.pngpa3ofhvvLzw/{domain}/point_311__view_ca1c1fa850f34d8492def93ebfdda01d__{domain}_fixated.pngpa3ofhvvLzw/{domain}/point_312__view_341e14cc33c44cd48cbe1230272270db__{domain}_fixated.pngpa3ofhvvLzw/{domain}/point_312__view_3b9c05000fcf40d3b4e5255626303b39__{domain}_fixated.pngpa3ofhvvLzw/{domain}/point_312__view_7cc913e4f8b3446497b0bd2c4e848674__{domain}_fixated.pngpa3ofhvvLzw/{domain}/point_312__view_bdafdf26f6c04a478d51b26a10fc7488__{domain}_fixated.pngpa3ofhvvLzw/{domain}/point_312__view_e35ea8c84afd45869ef2434b420072e4__{domain}_fixated.pngpa3ofhvvLzw/{domain}/point_313__view_3b9c05000fcf40d3b4e5255626303b39__{domain}_fixated.pngpa3ofhvvLzw/{domain}/point_313__view_7cc913e4f8b3446497b0bd2c4e848674__{domain}_fixated.pngpa3ofhvvLzw/{domain}/point_313__view_bdafdf26f6c04a478d51b26a10fc7488__{domain}_fixated.pngpa3ofhvvLzw/{domain}/point_314__view_20a0c1671ff5485da75261be763ef9db__{domain}_fixated.pngpa3ofhvvLzw/{domain}/point_314__view_3b9c05000fcf40d3b4e5255626303b39__{domain}_fixated.pngpa3ofhvvLzw/{domain}/point_315__view_30e2b3dfb71d4c5cadb454f55f18dad7__{domain}_fixated.pngpa3ofhvvLzw/{domain}/point_315__view_33c1240bc276484b91c56a080e19bc0b__{domain}_fixated.pngpa3ofhvvLzw/{domain}/point_315__view_695df6af2970408dae4e29bb6b4d45a1__{domain}_fixated.pngpa3ofhvvLzw/{domain}/point_315__view_a6ff7ea9259a4d30b3851d811a42bc81__{domain}_fixated.pngpa3ofhvvLzw/{domain}/point_316__view_20a0c1671ff5485da75261be763ef9db__{domain}_fixated.pngpa3ofhvvLzw/{domain}/point_316__view_3b9c05000fcf40d3b4e5255626303b39__{domain}_fixated.pngpa3ofhvvLzw/{domain}/point_317__view_20a0c1671ff5485da75261be763ef9db__{domain}_fixated.pngpa3ofhvvLzw/{domain}/point_317__view_341e14cc33c44cd48cbe1230272270db__{domain}_fixated.pngpa3ofhvvLzw/{domain}/point_317__view_3b9c05000fcf40d3b4e5255626303b39__{domain}_fixated.pngpa3ofhvvLzw/{domain}/point_317__view_7cc913e4f8b3446497b0bd2c4e848674__{domain}_fixated.pngpa3ofhvvLzw/{domain}/point_317__view_e35ea8c84afd45869ef2434b420072e4__{domain}_fixated.pngpa3ofhvvLzw/{domain}/point_318__view_341e14cc33c44cd48cbe1230272270db__{domain}_fixated.pngpa3ofhvvLzw/{domain}/point_318__view_bdafdf26f6c04a478d51b26a10fc7488__{domain}_fixated.pngpa3ofhvvLzw/{domain}/point_318__view_e35ea8c84afd45869ef2434b420072e4__{domain}_fixated.pngpa3ofhvvLzw/{domain}/point_319__view_76df9ef10ad44218b85588588f11520f__{domain}_fixated.pngpa3ofhvvLzw/{domain}/point_319__view_f4efc806a42e47758bb53a223ec24c40__{domain}_fixated.pngpa3ofhvvLzw/{domain}/point_31__view_00be6a3da05445bbb3b411fa774a3448__{domain}_fixated.png\x00pa3ofhvvLzw/{domain}/point_31__view_646002c368734698a42fab3232a1039a__{domain}_fixated.png\x00pa3ofhvvLzw/{domain}/point_31__view_827a2d0be84e41868be3b10d670441bf__{domain}_fixated.png\x00pa3ofhvvLzw/{domain}/point_31__view_ab2198f82bd74f4f917d15f1ae9db8f2__{domain}_fixated.png\x00pa3ofhvvLzw/{domain}/point_31__view_ca1c1fa850f34d8492def93ebfdda01d__{domain}_fixated.png\x00pa3ofhvvLzw/{domain}/point_320__view_20a0c1671ff5485da75261be763ef9db__{domain}_fixated.pngpa3ofhvvLzw/{domain}/point_320__view_341e14cc33c44cd48cbe1230272270db__{domain}_fixated.pngpa3ofhvvLzw/{domain}/point_320__view_3b9c05000fcf40d3b4e5255626303b39__{domain}_fixated.pngpa3ofhvvLzw/{domain}/point_320__view_5882b50dd9144bff89cb5f7d16638355__{domain}_fixated.pngpa3ofhvvLzw/{domain}/point_320__view_7cc913e4f8b3446497b0bd2c4e848674__{domain}_fixated.pngpa3ofhvvLzw/{domain}/point_320__view_bdafdf26f6c04a478d51b26a10fc7488__{domain}_fixated.pngpa3ofhvvLzw/{domain}/point_320__view_e35ea8c84afd45869ef2434b420072e4__{domain}_fixated.pngpa3ofhvvLzw/{domain}/point_321__view_5882b50dd9144bff89cb5f7d16638355__{domain}_fixated.pngpa3ofhvvLzw/{domain}/point_321__view_7cc913e4f8b3446497b0bd2c4e848674__{domain}_fixated.pngpa3ofhvvLzw/{domain}/point_321__view_bdafdf26f6c04a478d51b26a10fc7488__{domain}_fixated.pngpa3ofhvvLzw/{domain}/point_321__view_e35ea8c84afd45869ef2434b420072e4__{domain}_fixated.pngpa3ofhvvLzw/{domain}/point_322__view_25c8ed4db050433c8d2888f6519fb03c__{domain}_fixated.pngpa3ofhvvLzw/{domain}/point_322__view_9675bde56b2b4b3cbc9f4f48ffdff5a0__{domain}_fixated.pngpa3ofhvvLzw/{domain}/point_322__view_a6ff7ea9259a4d30b3851d811a42bc81__{domain}_fixated.pngpa3ofhvvLzw/{domain}/point_323__view_20a0c1671ff5485da75261be763ef9db__{domain}_fixated.pngpa3ofhvvLzw/{domain}/point_323__view_341e14cc33c44cd48cbe1230272270db__{domain}_fixated.pngpa3ofhvvLzw/{domain}/point_323__view_3b9c05000fcf40d3b4e5255626303b39__{domain}_fixated.pngpa3ofhvvLzw/{domain}/point_323__view_5882b50dd9144bff89cb5f7d16638355__{domain}_fixated.pngpa3ofhvvLzw/{domain}/point_323__view_7cc913e4f8b3446497b0bd2c4e848674__{domain}_fixated.pngpa3ofhvvLzw/{domain}/point_323__view_bdafdf26f6c04a478d51b26a10fc7488__{domain}_fixated.pngpa3ofhvvLzw/{domain}/point_323__view_e35ea8c84afd45869ef2434b420072e4__{domain}_fixated.pngpa3ofhvvLzw/{domain}/point_324__view_341e14cc33c44cd48cbe1230272270db__{domain}_fixated.pngpa3ofhvvLzw/{domain}/point_324__view_bdafdf26f6c04a478d51b26a10fc7488__{domain}_fixated.pngpa3ofhvvLzw/{domain}/point_324__view_e35ea8c84afd45869ef2434b420072e4__{domain}_fixated.pngpa3ofhvvLzw/{domain}/point_325__view_53b0970d28744d21ba03ff9bfe2cf20e__{domain}_fixated.pngpa3ofhvvLzw/{domain}/point_325__view_9312509783424e2c82ed5c10ad350084__{domain}_fixated.pngpa3ofhvvLzw/{domain}/point_326__view_30e2b3dfb71d4c5cadb454f55f18dad7__{domain}_fixated.pngpa3ofhvvLzw/{domain}/point_326__view_53b0970d28744d21ba03ff9bfe2cf20e__{domain}_fixated.pngpa3ofhvvLzw/{domain}/point_326__view_9312509783424e2c82ed5c10ad350084__{domain}_fixated.pngpa3ofhvvLzw/{domain}/point_326__view_e2b1bd0bbf344902bea242bcd2bfba45__{domain}_fixated.pngpa3ofhvvLzw/{domain}/point_327__view_3b9c05000fcf40d3b4e5255626303b39__{domain}_fixated.pngpa3ofhvvLzw/{domain}/point_327__view_7cc913e4f8b3446497b0bd2c4e848674__{domain}_fixated.pngpa3ofhvvLzw/{domain}/point_328__view_0dabb087739b4decbca522ea41d11e2b__{domain}_fixated.pngpa3ofhvvLzw/{domain}/point_328__view_33c1240bc276484b91c56a080e19bc0b__{domain}_fixated.pngpa3ofhvvLzw/{domain}/point_328__view_4aa83e63f5e54cf18aa96220e6472dbc__{domain}_fixated.pngpa3ofhvvLzw/{domain}/point_328__view_8549a19947f34117a7c4ae8f48681d81__{domain}_fixated.pngpa3ofhvvLzw/{domain}/point_328__view_ca1c1fa850f34d8492def93ebfdda01d__{domain}_fixated.pngpa3ofhvvLzw/{domain}/point_329__view_20a0c1671ff5485da75261be763ef9db__{domain}_fixated.pngpa3ofhvvLzw/{domain}/point_329__view_3b9c05000fcf40d3b4e5255626303b39__{domain}_fixated.pngpa3ofhvvLzw/{domain}/point_32__view_7cc913e4f8b3446497b0bd2c4e848674__{domain}_fixated.png\x00pa3ofhvvLzw/{domain}/point_32__view_bdafdf26f6c04a478d51b26a10fc7488__{domain}_fixated.png\x00pa3ofhvvLzw/{domain}/point_330__view_20a0c1671ff5485da75261be763ef9db__{domain}_fixated.pngpa3ofhvvLzw/{domain}/point_330__view_341e14cc33c44cd48cbe1230272270db__{domain}_fixated.pngpa3ofhvvLzw/{domain}/point_330__view_3b9c05000fcf40d3b4e5255626303b39__{domain}_fixated.pngpa3ofhvvLzw/{domain}/point_330__view_e35ea8c84afd45869ef2434b420072e4__{domain}_fixated.pngpa3ofhvvLzw/{domain}/point_331__view_341e14cc33c44cd48cbe1230272270db__{domain}_fixated.pngpa3ofhvvLzw/{domain}/point_331__view_bdafdf26f6c04a478d51b26a10fc7488__{domain}_fixated.pngpa3ofhvvLzw/{domain}/point_331__view_e35ea8c84afd45869ef2434b420072e4__{domain}_fixated.pngpa3ofhvvLzw/{domain}/point_332__view_341e14cc33c44cd48cbe1230272270db__{domain}_fixated.pngpa3ofhvvLzw/{domain}/point_332__view_50dbfa23f49345ea8fa6110958d49f71__{domain}_fixated.pngpa3ofhvvLzw/{domain}/point_333__view_341e14cc33c44cd48cbe1230272270db__{domain}_fixated.pngpa3ofhvvLzw/{domain}/point_333__view_e35ea8c84afd45869ef2434b420072e4__{domain}_fixated.pngpa3ofhvvLzw/{domain}/point_334__view_4aa83e63f5e54cf18aa96220e6472dbc__{domain}_fixated.pngpa3ofhvvLzw/{domain}/point_334__view_a6ff7ea9259a4d30b3851d811a42bc81__{domain}_fixated.pngpa3ofhvvLzw/{domain}/point_335__view_0dabb087739b4decbca522ea41d11e2b__{domain}_fixated.pngpa3ofhvvLzw/{domain}/point_335__view_25c8ed4db050433c8d2888f6519fb03c__{domain}_fixated.pngpa3ofhvvLzw/{domain}/point_335__view_33c1240bc276484b91c56a080e19bc0b__{domain}_fixated.pngpa3ofhvvLzw/{domain}/point_335__view_695df6af2970408dae4e29bb6b4d45a1__{domain}_fixated.pngpa3ofhvvLzw/{domain}/point_335__view_9675bde56b2b4b3cbc9f4f48ffdff5a0__{domain}_fixated.pngpa3ofhvvLzw/{domain}/point_335__view_a6ff7ea9259a4d30b3851d811a42bc81__{domain}_fixated.pngpa3ofhvvLzw/{domain}/point_335__view_ca1c1fa850f34d8492def93ebfdda01d__{domain}_fixated.pngpa3ofhvvLzw/{domain}/point_336__view_0dabb087739b4decbca522ea41d11e2b__{domain}_fixated.pngpa3ofhvvLzw/{domain}/point_336__view_33c1240bc276484b91c56a080e19bc0b__{domain}_fixated.pngpa3ofhvvLzw/{domain}/point_337__view_20a0c1671ff5485da75261be763ef9db__{domain}_fixated.pngpa3ofhvvLzw/{domain}/point_337__view_341e14cc33c44cd48cbe1230272270db__{domain}_fixated.pngpa3ofhvvLzw/{domain}/point_337__view_3b9c05000fcf40d3b4e5255626303b39__{domain}_fixated.pngpa3ofhvvLzw/{domain}/point_338__view_20a0c1671ff5485da75261be763ef9db__{domain}_fixated.pngpa3ofhvvLzw/{domain}/point_338__view_3b9c05000fcf40d3b4e5255626303b39__{domain}_fixated.pngpa3ofhvvLzw/{domain}/point_339__view_76df9ef10ad44218b85588588f11520f__{domain}_fixated.pngpa3ofhvvLzw/{domain}/point_339__view_f4efc806a42e47758bb53a223ec24c40__{domain}_fixated.pngpa3ofhvvLzw/{domain}/point_33__view_4aa83e63f5e54cf18aa96220e6472dbc__{domain}_fixated.png\x00pa3ofhvvLzw/{domain}/point_33__view_695df6af2970408dae4e29bb6b4d45a1__{domain}_fixated.png\x00pa3ofhvvLzw/{domain}/point_340__view_33c1240bc276484b91c56a080e19bc0b__{domain}_fixated.pngpa3ofhvvLzw/{domain}/point_340__view_9312509783424e2c82ed5c10ad350084__{domain}_fixated.pngpa3ofhvvLzw/{domain}/point_340__view_d9bf19f531ac478ba48be1c481bee6e4__{domain}_fixated.pngpa3ofhvvLzw/{domain}/point_341__view_30e2b3dfb71d4c5cadb454f55f18dad7__{domain}_fixated.pngpa3ofhvvLzw/{domain}/point_341__view_33c1240bc276484b91c56a080e19bc0b__{domain}_fixated.pngpa3ofhvvLzw/{domain}/point_341__view_4aa83e63f5e54cf18aa96220e6472dbc__{domain}_fixated.pngpa3ofhvvLzw/{domain}/point_341__view_695df6af2970408dae4e29bb6b4d45a1__{domain}_fixated.pngpa3ofhvvLzw/{domain}/point_342__view_3aa2e8c84ebd4d588279a6c6cd5bc618__{domain}_fixated.pngpa3ofhvvLzw/{domain}/point_342__view_76df9ef10ad44218b85588588f11520f__{domain}_fixated.pngpa3ofhvvLzw/{domain}/point_343__view_50dbfa23f49345ea8fa6110958d49f71__{domain}_fixated.pngpa3ofhvvLzw/{domain}/point_343__view_d699402350db4c8784d0152f99a4d238__{domain}_fixated.pngpa3ofhvvLzw/{domain}/point_343__view_e35ea8c84afd45869ef2434b420072e4__{domain}_fixated.pngpa3ofhvvLzw/{domain}/point_344__view_0dabb087739b4decbca522ea41d11e2b__{domain}_fixated.pngpa3ofhvvLzw/{domain}/point_344__view_33c1240bc276484b91c56a080e19bc0b__{domain}_fixated.pngpa3ofhvvLzw/{domain}/point_345__view_50dbfa23f49345ea8fa6110958d49f71__{domain}_fixated.pngpa3ofhvvLzw/{domain}/point_345__view_5882b50dd9144bff89cb5f7d16638355__{domain}_fixated.pngpa3ofhvvLzw/{domain}/point_345__view_d699402350db4c8784d0152f99a4d238__{domain}_fixated.pngpa3ofhvvLzw/{domain}/point_345__view_ea6847c2cb9348178bd0697a5e92ecaa__{domain}_fixated.pngpa3ofhvvLzw/{domain}/point_346__view_20a0c1671ff5485da75261be763ef9db__{domain}_fixated.pngpa3ofhvvLzw/{domain}/point_346__view_3b9c05000fcf40d3b4e5255626303b39__{domain}_fixated.pngpa3ofhvvLzw/{domain}/point_346__view_5882b50dd9144bff89cb5f7d16638355__{domain}_fixated.pngpa3ofhvvLzw/{domain}/point_346__view_7cc913e4f8b3446497b0bd2c4e848674__{domain}_fixated.pngpa3ofhvvLzw/{domain}/point_346__view_bdafdf26f6c04a478d51b26a10fc7488__{domain}_fixated.pngpa3ofhvvLzw/{domain}/point_346__view_e35ea8c84afd45869ef2434b420072e4__{domain}_fixated.pngpa3ofhvvLzw/{domain}/point_347__view_76df9ef10ad44218b85588588f11520f__{domain}_fixated.pngpa3ofhvvLzw/{domain}/point_347__view_f4efc806a42e47758bb53a223ec24c40__{domain}_fixated.pngpa3ofhvvLzw/{domain}/point_348__view_00be6a3da05445bbb3b411fa774a3448__{domain}_fixated.pngpa3ofhvvLzw/{domain}/point_348__view_ca1c1fa850f34d8492def93ebfdda01d__{domain}_fixated.pngpa3ofhvvLzw/{domain}/point_349__view_5882b50dd9144bff89cb5f7d16638355__{domain}_fixated.pngpa3ofhvvLzw/{domain}/point_349__view_d699402350db4c8784d0152f99a4d238__{domain}_fixated.pngpa3ofhvvLzw/{domain}/point_34__view_20a0c1671ff5485da75261be763ef9db__{domain}_fixated.png\x00pa3ofhvvLzw/{domain}/point_34__view_3b9c05000fcf40d3b4e5255626303b39__{domain}_fixated.png\x00pa3ofhvvLzw/{domain}/point_350__view_30e2b3dfb71d4c5cadb454f55f18dad7__{domain}_fixated.pngpa3ofhvvLzw/{domain}/point_350__view_4aa83e63f5e54cf18aa96220e6472dbc__{domain}_fixated.pngpa3ofhvvLzw/{domain}/point_350__view_8549a19947f34117a7c4ae8f48681d81__{domain}_fixated.pngpa3ofhvvLzw/{domain}/point_350__view_f4efc806a42e47758bb53a223ec24c40__{domain}_fixated.pngpa3ofhvvLzw/{domain}/point_351__view_7cc913e4f8b3446497b0bd2c4e848674__{domain}_fixated.pngpa3ofhvvLzw/{domain}/point_351__view_bdafdf26f6c04a478d51b26a10fc7488__{domain}_fixated.pngpa3ofhvvLzw/{domain}/point_352__view_ab2198f82bd74f4f917d15f1ae9db8f2__{domain}_fixated.pngpa3ofhvvLzw/{domain}/point_352__view_e2b1bd0bbf344902bea242bcd2bfba45__{domain}_fixated.pngpa3ofhvvLzw/{domain}/point_353__view_ab2198f82bd74f4f917d15f1ae9db8f2__{domain}_fixated.pngpa3ofhvvLzw/{domain}/point_353__view_e2b1bd0bbf344902bea242bcd2bfba45__{domain}_fixated.pngpa3ofhvvLzw/{domain}/point_354__view_7cc913e4f8b3446497b0bd2c4e848674__{domain}_fixated.pngpa3ofhvvLzw/{domain}/point_354__view_bdafdf26f6c04a478d51b26a10fc7488__{domain}_fixated.pngpa3ofhvvLzw/{domain}/point_355__view_0dabb087739b4decbca522ea41d11e2b__{domain}_fixated.pngpa3ofhvvLzw/{domain}/point_355__view_33c1240bc276484b91c56a080e19bc0b__{domain}_fixated.pngpa3ofhvvLzw/{domain}/point_355__view_9675bde56b2b4b3cbc9f4f48ffdff5a0__{domain}_fixated.pngpa3ofhvvLzw/{domain}/point_355__view_a6ff7ea9259a4d30b3851d811a42bc81__{domain}_fixated.pngpa3ofhvvLzw/{domain}/point_356__view_20a0c1671ff5485da75261be763ef9db__{domain}_fixated.pngpa3ofhvvLzw/{domain}/point_356__view_341e14cc33c44cd48cbe1230272270db__{domain}_fixated.pngpa3ofhvvLzw/{domain}/point_356__view_3b9c05000fcf40d3b4e5255626303b39__{domain}_fixated.pngpa3ofhvvLzw/{domain}/point_357__view_30e2b3dfb71d4c5cadb454f55f18dad7__{domain}_fixated.pngpa3ofhvvLzw/{domain}/point_357__view_33c1240bc276484b91c56a080e19bc0b__{domain}_fixated.pngpa3ofhvvLzw/{domain}/point_357__view_4aa83e63f5e54cf18aa96220e6472dbc__{domain}_fixated.pngpa3ofhvvLzw/{domain}/point_358__view_50dbfa23f49345ea8fa6110958d49f71__{domain}_fixated.pngpa3ofhvvLzw/{domain}/point_358__view_5882b50dd9144bff89cb5f7d16638355__{domain}_fixated.pngpa3ofhvvLzw/{domain}/point_359__view_50dbfa23f49345ea8fa6110958d49f71__{domain}_fixated.pngpa3ofhvvLzw/{domain}/point_359__view_5882b50dd9144bff89cb5f7d16638355__{domain}_fixated.pngpa3ofhvvLzw/{domain}/point_359__view_d699402350db4c8784d0152f99a4d238__{domain}_fixated.pngpa3ofhvvLzw/{domain}/point_359__view_ea6847c2cb9348178bd0697a5e92ecaa__{domain}_fixated.pngpa3ofhvvLzw/{domain}/point_35__view_20a0c1671ff5485da75261be763ef9db__{domain}_fixated.png\x00pa3ofhvvLzw/{domain}/point_35__view_341e14cc33c44cd48cbe1230272270db__{domain}_fixated.png\x00pa3ofhvvLzw/{domain}/point_35__view_3b9c05000fcf40d3b4e5255626303b39__{domain}_fixated.png\x00pa3ofhvvLzw/{domain}/point_35__view_bdafdf26f6c04a478d51b26a10fc7488__{domain}_fixated.png\x00pa3ofhvvLzw/{domain}/point_35__view_e35ea8c84afd45869ef2434b420072e4__{domain}_fixated.png\x00pa3ofhvvLzw/{domain}/point_360__view_20a0c1671ff5485da75261be763ef9db__{domain}_fixated.pngpa3ofhvvLzw/{domain}/point_360__view_341e14cc33c44cd48cbe1230272270db__{domain}_fixated.pngpa3ofhvvLzw/{domain}/point_360__view_3b9c05000fcf40d3b4e5255626303b39__{domain}_fixated.pngpa3ofhvvLzw/{domain}/point_360__view_5882b50dd9144bff89cb5f7d16638355__{domain}_fixated.pngpa3ofhvvLzw/{domain}/point_360__view_7cc913e4f8b3446497b0bd2c4e848674__{domain}_fixated.pngpa3ofhvvLzw/{domain}/point_360__view_bdafdf26f6c04a478d51b26a10fc7488__{domain}_fixated.pngpa3ofhvvLzw/{domain}/point_360__view_e35ea8c84afd45869ef2434b420072e4__{domain}_fixated.pngpa3ofhvvLzw/{domain}/point_361__view_20a0c1671ff5485da75261be763ef9db__{domain}_fixated.pngpa3ofhvvLzw/{domain}/point_361__view_3b9c05000fcf40d3b4e5255626303b39__{domain}_fixated.pngpa3ofhvvLzw/{domain}/point_361__view_5882b50dd9144bff89cb5f7d16638355__{domain}_fixated.pngpa3ofhvvLzw/{domain}/point_361__view_7cc913e4f8b3446497b0bd2c4e848674__{domain}_fixated.pngpa3ofhvvLzw/{domain}/point_361__view_bdafdf26f6c04a478d51b26a10fc7488__{domain}_fixated.pngpa3ofhvvLzw/{domain}/point_361__view_e35ea8c84afd45869ef2434b420072e4__{domain}_fixated.pngpa3ofhvvLzw/{domain}/point_362__view_20a0c1671ff5485da75261be763ef9db__{domain}_fixated.pngpa3ofhvvLzw/{domain}/point_362__view_341e14cc33c44cd48cbe1230272270db__{domain}_fixated.pngpa3ofhvvLzw/{domain}/point_362__view_3b9c05000fcf40d3b4e5255626303b39__{domain}_fixated.pngpa3ofhvvLzw/{domain}/point_362__view_7cc913e4f8b3446497b0bd2c4e848674__{domain}_fixated.pngpa3ofhvvLzw/{domain}/point_362__view_e35ea8c84afd45869ef2434b420072e4__{domain}_fixated.pngpa3ofhvvLzw/{domain}/point_363__view_20a0c1671ff5485da75261be763ef9db__{domain}_fixated.pngpa3ofhvvLzw/{domain}/point_363__view_3b9c05000fcf40d3b4e5255626303b39__{domain}_fixated.pngpa3ofhvvLzw/{domain}/point_364__view_20a0c1671ff5485da75261be763ef9db__{domain}_fixated.pngpa3ofhvvLzw/{domain}/point_364__view_341e14cc33c44cd48cbe1230272270db__{domain}_fixated.pngpa3ofhvvLzw/{domain}/point_365__view_50dbfa23f49345ea8fa6110958d49f71__{domain}_fixated.pngpa3ofhvvLzw/{domain}/point_365__view_5882b50dd9144bff89cb5f7d16638355__{domain}_fixated.pngpa3ofhvvLzw/{domain}/point_366__view_d699402350db4c8784d0152f99a4d238__{domain}_fixated.pngpa3ofhvvLzw/{domain}/point_366__view_ea6847c2cb9348178bd0697a5e92ecaa__{domain}_fixated.pngpa3ofhvvLzw/{domain}/point_367__view_9312509783424e2c82ed5c10ad350084__{domain}_fixated.pngpa3ofhvvLzw/{domain}/point_367__view_d9bf19f531ac478ba48be1c481bee6e4__{domain}_fixated.pngpa3ofhvvLzw/{domain}/point_368__view_5882b50dd9144bff89cb5f7d16638355__{domain}_fixated.pngpa3ofhvvLzw/{domain}/point_368__view_d699402350db4c8784d0152f99a4d238__{domain}_fixated.pngpa3ofhvvLzw/{domain}/point_369__view_20a0c1671ff5485da75261be763ef9db__{domain}_fixated.pngpa3ofhvvLzw/{domain}/point_369__view_341e14cc33c44cd48cbe1230272270db__{domain}_fixated.pngpa3ofhvvLzw/{domain}/point_369__view_3b9c05000fcf40d3b4e5255626303b39__{domain}_fixated.pngpa3ofhvvLzw/{domain}/point_369__view_7cc913e4f8b3446497b0bd2c4e848674__{domain}_fixated.pngpa3ofhvvLzw/{domain}/point_369__view_bdafdf26f6c04a478d51b26a10fc7488__{domain}_fixated.pngpa3ofhvvLzw/{domain}/point_369__view_d699402350db4c8784d0152f99a4d238__{domain}_fixated.pngpa3ofhvvLzw/{domain}/point_369__view_e35ea8c84afd45869ef2434b420072e4__{domain}_fixated.pngpa3ofhvvLzw/{domain}/point_36__view_695df6af2970408dae4e29bb6b4d45a1__{domain}_fixated.png\x00pa3ofhvvLzw/{domain}/point_36__view_ab2198f82bd74f4f917d15f1ae9db8f2__{domain}_fixated.png\x00pa3ofhvvLzw/{domain}/point_370__view_341e14cc33c44cd48cbe1230272270db__{domain}_fixated.pngpa3ofhvvLzw/{domain}/point_370__view_bdafdf26f6c04a478d51b26a10fc7488__{domain}_fixated.pngpa3ofhvvLzw/{domain}/point_370__view_e35ea8c84afd45869ef2434b420072e4__{domain}_fixated.pngpa3ofhvvLzw/{domain}/point_371__view_50dbfa23f49345ea8fa6110958d49f71__{domain}_fixated.pngpa3ofhvvLzw/{domain}/point_371__view_d699402350db4c8784d0152f99a4d238__{domain}_fixated.pngpa3ofhvvLzw/{domain}/point_372__view_20a0c1671ff5485da75261be763ef9db__{domain}_fixated.pngpa3ofhvvLzw/{domain}/point_372__view_341e14cc33c44cd48cbe1230272270db__{domain}_fixated.pngpa3ofhvvLzw/{domain}/point_372__view_3b9c05000fcf40d3b4e5255626303b39__{domain}_fixated.pngpa3ofhvvLzw/{domain}/point_372__view_bdafdf26f6c04a478d51b26a10fc7488__{domain}_fixated.pngpa3ofhvvLzw/{domain}/point_372__view_e35ea8c84afd45869ef2434b420072e4__{domain}_fixated.pngpa3ofhvvLzw/{domain}/point_373__view_5882b50dd9144bff89cb5f7d16638355__{domain}_fixated.pngpa3ofhvvLzw/{domain}/point_373__view_7a4a5c985e7e4b5d8b3661653b680303__{domain}_fixated.pngpa3ofhvvLzw/{domain}/point_374__view_25c8ed4db050433c8d2888f6519fb03c__{domain}_fixated.pngpa3ofhvvLzw/{domain}/point_374__view_9675bde56b2b4b3cbc9f4f48ffdff5a0__{domain}_fixated.pngpa3ofhvvLzw/{domain}/point_374__view_a6ff7ea9259a4d30b3851d811a42bc81__{domain}_fixated.pngpa3ofhvvLzw/{domain}/point_375__view_50dbfa23f49345ea8fa6110958d49f71__{domain}_fixated.pngpa3ofhvvLzw/{domain}/point_375__view_5882b50dd9144bff89cb5f7d16638355__{domain}_fixated.pngpa3ofhvvLzw/{domain}/point_376__view_695df6af2970408dae4e29bb6b4d45a1__{domain}_fixated.pngpa3ofhvvLzw/{domain}/point_376__view_ab2198f82bd74f4f917d15f1ae9db8f2__{domain}_fixated.pngpa3ofhvvLzw/{domain}/point_377__view_25c8ed4db050433c8d2888f6519fb03c__{domain}_fixated.pngpa3ofhvvLzw/{domain}/point_377__view_a6ff7ea9259a4d30b3851d811a42bc81__{domain}_fixated.pngpa3ofhvvLzw/{domain}/point_378__view_4aa83e63f5e54cf18aa96220e6472dbc__{domain}_fixated.pngpa3ofhvvLzw/{domain}/point_378__view_8549a19947f34117a7c4ae8f48681d81__{domain}_fixated.pngpa3ofhvvLzw/{domain}/point_379__view_20a0c1671ff5485da75261be763ef9db__{domain}_fixated.pngpa3ofhvvLzw/{domain}/point_379__view_341e14cc33c44cd48cbe1230272270db__{domain}_fixated.pngpa3ofhvvLzw/{domain}/point_379__view_3b9c05000fcf40d3b4e5255626303b39__{domain}_fixated.pngpa3ofhvvLzw/{domain}/point_379__view_7cc913e4f8b3446497b0bd2c4e848674__{domain}_fixated.pngpa3ofhvvLzw/{domain}/point_379__view_e35ea8c84afd45869ef2434b420072e4__{domain}_fixated.pngpa3ofhvvLzw/{domain}/point_37__view_5882b50dd9144bff89cb5f7d16638355__{domain}_fixated.png\x00pa3ofhvvLzw/{domain}/point_37__view_7cc913e4f8b3446497b0bd2c4e848674__{domain}_fixated.png\x00pa3ofhvvLzw/{domain}/point_37__view_bdafdf26f6c04a478d51b26a10fc7488__{domain}_fixated.png\x00pa3ofhvvLzw/{domain}/point_380__view_3b9c05000fcf40d3b4e5255626303b39__{domain}_fixated.pngpa3ofhvvLzw/{domain}/point_380__view_7cc913e4f8b3446497b0bd2c4e848674__{domain}_fixated.pngpa3ofhvvLzw/{domain}/point_380__view_bdafdf26f6c04a478d51b26a10fc7488__{domain}_fixated.pngpa3ofhvvLzw/{domain}/point_381__view_0dabb087739b4decbca522ea41d11e2b__{domain}_fixated.pngpa3ofhvvLzw/{domain}/point_381__view_695df6af2970408dae4e29bb6b4d45a1__{domain}_fixated.pngpa3ofhvvLzw/{domain}/point_381__view_ca1c1fa850f34d8492def93ebfdda01d__{domain}_fixated.pngpa3ofhvvLzw/{domain}/point_382__view_00be6a3da05445bbb3b411fa774a3448__{domain}_fixated.pngpa3ofhvvLzw/{domain}/point_382__view_827a2d0be84e41868be3b10d670441bf__{domain}_fixated.pngpa3ofhvvLzw/{domain}/point_383__view_0dabb087739b4decbca522ea41d11e2b__{domain}_fixated.pngpa3ofhvvLzw/{domain}/point_383__view_25c8ed4db050433c8d2888f6519fb03c__{domain}_fixated.pngpa3ofhvvLzw/{domain}/point_383__view_30e2b3dfb71d4c5cadb454f55f18dad7__{domain}_fixated.pngpa3ofhvvLzw/{domain}/point_383__view_33c1240bc276484b91c56a080e19bc0b__{domain}_fixated.pngpa3ofhvvLzw/{domain}/point_383__view_695df6af2970408dae4e29bb6b4d45a1__{domain}_fixated.pngpa3ofhvvLzw/{domain}/point_383__view_ca1c1fa850f34d8492def93ebfdda01d__{domain}_fixated.pngpa3ofhvvLzw/{domain}/point_384__view_20a0c1671ff5485da75261be763ef9db__{domain}_fixated.pngpa3ofhvvLzw/{domain}/point_384__view_50dbfa23f49345ea8fa6110958d49f71__{domain}_fixated.pngpa3ofhvvLzw/{domain}/point_384__view_d699402350db4c8784d0152f99a4d238__{domain}_fixated.pngpa3ofhvvLzw/{domain}/point_384__view_e35ea8c84afd45869ef2434b420072e4__{domain}_fixated.pngpa3ofhvvLzw/{domain}/point_385__view_20a0c1671ff5485da75261be763ef9db__{domain}_fixated.pngpa3ofhvvLzw/{domain}/point_385__view_3b9c05000fcf40d3b4e5255626303b39__{domain}_fixated.pngpa3ofhvvLzw/{domain}/point_385__view_7cc913e4f8b3446497b0bd2c4e848674__{domain}_fixated.pngpa3ofhvvLzw/{domain}/point_385__view_d699402350db4c8784d0152f99a4d238__{domain}_fixated.pngpa3ofhvvLzw/{domain}/point_386__view_ab2198f82bd74f4f917d15f1ae9db8f2__{domain}_fixated.pngpa3ofhvvLzw/{domain}/point_386__view_ca1c1fa850f34d8492def93ebfdda01d__{domain}_fixated.pngpa3ofhvvLzw/{domain}/point_387__view_d699402350db4c8784d0152f99a4d238__{domain}_fixated.pngpa3ofhvvLzw/{domain}/point_387__view_ea6847c2cb9348178bd0697a5e92ecaa__{domain}_fixated.pngpa3ofhvvLzw/{domain}/point_388__view_646002c368734698a42fab3232a1039a__{domain}_fixated.pngpa3ofhvvLzw/{domain}/point_388__view_695df6af2970408dae4e29bb6b4d45a1__{domain}_fixated.pngpa3ofhvvLzw/{domain}/point_388__view_827a2d0be84e41868be3b10d670441bf__{domain}_fixated.pngpa3ofhvvLzw/{domain}/point_388__view_e2b1bd0bbf344902bea242bcd2bfba45__{domain}_fixated.pngpa3ofhvvLzw/{domain}/point_389__view_646002c368734698a42fab3232a1039a__{domain}_fixated.pngpa3ofhvvLzw/{domain}/point_389__view_695df6af2970408dae4e29bb6b4d45a1__{domain}_fixated.pngpa3ofhvvLzw/{domain}/point_389__view_827a2d0be84e41868be3b10d670441bf__{domain}_fixated.pngpa3ofhvvLzw/{domain}/point_389__view_ca1c1fa850f34d8492def93ebfdda01d__{domain}_fixated.pngpa3ofhvvLzw/{domain}/point_38__view_646002c368734698a42fab3232a1039a__{domain}_fixated.png\x00pa3ofhvvLzw/{domain}/point_38__view_695df6af2970408dae4e29bb6b4d45a1__{domain}_fixated.png\x00pa3ofhvvLzw/{domain}/point_38__view_827a2d0be84e41868be3b10d670441bf__{domain}_fixated.png\x00pa3ofhvvLzw/{domain}/point_38__view_ab2198f82bd74f4f917d15f1ae9db8f2__{domain}_fixated.png\x00pa3ofhvvLzw/{domain}/point_38__view_e2b1bd0bbf344902bea242bcd2bfba45__{domain}_fixated.png\x00pa3ofhvvLzw/{domain}/point_390__view_76df9ef10ad44218b85588588f11520f__{domain}_fixated.pngpa3ofhvvLzw/{domain}/point_390__view_f4efc806a42e47758bb53a223ec24c40__{domain}_fixated.pngpa3ofhvvLzw/{domain}/point_391__view_0dabb087739b4decbca522ea41d11e2b__{domain}_fixated.pngpa3ofhvvLzw/{domain}/point_391__view_695df6af2970408dae4e29bb6b4d45a1__{domain}_fixated.pngpa3ofhvvLzw/{domain}/point_391__view_ca1c1fa850f34d8492def93ebfdda01d__{domain}_fixated.pngpa3ofhvvLzw/{domain}/point_392__view_30e2b3dfb71d4c5cadb454f55f18dad7__{domain}_fixated.pngpa3ofhvvLzw/{domain}/point_392__view_a6ff7ea9259a4d30b3851d811a42bc81__{domain}_fixated.pngpa3ofhvvLzw/{domain}/point_393__view_20a0c1671ff5485da75261be763ef9db__{domain}_fixated.pngpa3ofhvvLzw/{domain}/point_393__view_3b9c05000fcf40d3b4e5255626303b39__{domain}_fixated.pngpa3ofhvvLzw/{domain}/point_393__view_7cc913e4f8b3446497b0bd2c4e848674__{domain}_fixated.pngpa3ofhvvLzw/{domain}/point_394__view_20a0c1671ff5485da75261be763ef9db__{domain}_fixated.pngpa3ofhvvLzw/{domain}/point_394__view_3b9c05000fcf40d3b4e5255626303b39__{domain}_fixated.pngpa3ofhvvLzw/{domain}/point_394__view_e35ea8c84afd45869ef2434b420072e4__{domain}_fixated.pngpa3ofhvvLzw/{domain}/point_395__view_4aa83e63f5e54cf18aa96220e6472dbc__{domain}_fixated.pngpa3ofhvvLzw/{domain}/point_395__view_646002c368734698a42fab3232a1039a__{domain}_fixated.pngpa3ofhvvLzw/{domain}/point_395__view_827a2d0be84e41868be3b10d670441bf__{domain}_fixated.pngpa3ofhvvLzw/{domain}/point_395__view_ab2198f82bd74f4f917d15f1ae9db8f2__{domain}_fixated.pngpa3ofhvvLzw/{domain}/point_395__view_ca1c1fa850f34d8492def93ebfdda01d__{domain}_fixated.pngpa3ofhvvLzw/{domain}/point_396__view_50dbfa23f49345ea8fa6110958d49f71__{domain}_fixated.pngpa3ofhvvLzw/{domain}/point_396__view_5882b50dd9144bff89cb5f7d16638355__{domain}_fixated.pngpa3ofhvvLzw/{domain}/point_396__view_bdafdf26f6c04a478d51b26a10fc7488__{domain}_fixated.pngpa3ofhvvLzw/{domain}/point_397__view_646002c368734698a42fab3232a1039a__{domain}_fixated.pngpa3ofhvvLzw/{domain}/point_397__view_827a2d0be84e41868be3b10d670441bf__{domain}_fixated.pngpa3ofhvvLzw/{domain}/point_398__view_25c8ed4db050433c8d2888f6519fb03c__{domain}_fixated.pngpa3ofhvvLzw/{domain}/point_398__view_4aa83e63f5e54cf18aa96220e6472dbc__{domain}_fixated.pngpa3ofhvvLzw/{domain}/point_398__view_a6ff7ea9259a4d30b3851d811a42bc81__{domain}_fixated.pngpa3ofhvvLzw/{domain}/point_399__view_0dabb087739b4decbca522ea41d11e2b__{domain}_fixated.pngpa3ofhvvLzw/{domain}/point_399__view_25c8ed4db050433c8d2888f6519fb03c__{domain}_fixated.pngpa3ofhvvLzw/{domain}/point_399__view_33c1240bc276484b91c56a080e19bc0b__{domain}_fixated.pngpa3ofhvvLzw/{domain}/point_399__view_ca1c1fa850f34d8492def93ebfdda01d__{domain}_fixated.pngpa3ofhvvLzw/{domain}/point_39__view_9312509783424e2c82ed5c10ad350084__{domain}_fixated.png\x00pa3ofhvvLzw/{domain}/point_39__view_a6ff7ea9259a4d30b3851d811a42bc81__{domain}_fixated.png\x00pa3ofhvvLzw/{domain}/point_3__view_20a0c1671ff5485da75261be763ef9db__{domain}_fixated.png\x00\x00pa3ofhvvLzw/{domain}/point_3__view_341e14cc33c44cd48cbe1230272270db__{domain}_fixated.png\x00\x00pa3ofhvvLzw/{domain}/point_3__view_3b9c05000fcf40d3b4e5255626303b39__{domain}_fixated.png\x00\x00pa3ofhvvLzw/{domain}/point_3__view_7cc913e4f8b3446497b0bd2c4e848674__{domain}_fixated.png\x00\x00pa3ofhvvLzw/{domain}/point_400__view_341e14cc33c44cd48cbe1230272270db__{domain}_fixated.pngpa3ofhvvLzw/{domain}/point_400__view_50dbfa23f49345ea8fa6110958d49f71__{domain}_fixated.pngpa3ofhvvLzw/{domain}/point_401__view_341e14cc33c44cd48cbe1230272270db__{domain}_fixated.pngpa3ofhvvLzw/{domain}/point_401__view_50dbfa23f49345ea8fa6110958d49f71__{domain}_fixated.pngpa3ofhvvLzw/{domain}/point_401__view_7cc913e4f8b3446497b0bd2c4e848674__{domain}_fixated.pngpa3ofhvvLzw/{domain}/point_401__view_bdafdf26f6c04a478d51b26a10fc7488__{domain}_fixated.pngpa3ofhvvLzw/{domain}/point_401__view_e35ea8c84afd45869ef2434b420072e4__{domain}_fixated.pngpa3ofhvvLzw/{domain}/point_402__view_20a0c1671ff5485da75261be763ef9db__{domain}_fixated.pngpa3ofhvvLzw/{domain}/point_402__view_341e14cc33c44cd48cbe1230272270db__{domain}_fixated.pngpa3ofhvvLzw/{domain}/point_402__view_3b9c05000fcf40d3b4e5255626303b39__{domain}_fixated.pngpa3ofhvvLzw/{domain}/point_402__view_7cc913e4f8b3446497b0bd2c4e848674__{domain}_fixated.pngpa3ofhvvLzw/{domain}/point_402__view_bdafdf26f6c04a478d51b26a10fc7488__{domain}_fixated.pngpa3ofhvvLzw/{domain}/point_402__view_e35ea8c84afd45869ef2434b420072e4__{domain}_fixated.pngpa3ofhvvLzw/{domain}/point_403__view_20a0c1671ff5485da75261be763ef9db__{domain}_fixated.pngpa3ofhvvLzw/{domain}/point_403__view_3b9c05000fcf40d3b4e5255626303b39__{domain}_fixated.pngpa3ofhvvLzw/{domain}/point_404__view_0dabb087739b4decbca522ea41d11e2b__{domain}_fixated.pngpa3ofhvvLzw/{domain}/point_404__view_33c1240bc276484b91c56a080e19bc0b__{domain}_fixated.pngpa3ofhvvLzw/{domain}/point_404__view_4aa83e63f5e54cf18aa96220e6472dbc__{domain}_fixated.pngpa3ofhvvLzw/{domain}/point_404__view_8549a19947f34117a7c4ae8f48681d81__{domain}_fixated.pngpa3ofhvvLzw/{domain}/point_405__view_20a0c1671ff5485da75261be763ef9db__{domain}_fixated.pngpa3ofhvvLzw/{domain}/point_405__view_341e14cc33c44cd48cbe1230272270db__{domain}_fixated.pngpa3ofhvvLzw/{domain}/point_405__view_3b9c05000fcf40d3b4e5255626303b39__{domain}_fixated.pngpa3ofhvvLzw/{domain}/point_405__view_7cc913e4f8b3446497b0bd2c4e848674__{domain}_fixated.pngpa3ofhvvLzw/{domain}/point_405__view_bdafdf26f6c04a478d51b26a10fc7488__{domain}_fixated.pngpa3ofhvvLzw/{domain}/point_405__view_d699402350db4c8784d0152f99a4d238__{domain}_fixated.pngpa3ofhvvLzw/{domain}/point_405__view_e35ea8c84afd45869ef2434b420072e4__{domain}_fixated.pngpa3ofhvvLzw/{domain}/point_406__view_20a0c1671ff5485da75261be763ef9db__{domain}_fixated.pngpa3ofhvvLzw/{domain}/point_406__view_e35ea8c84afd45869ef2434b420072e4__{domain}_fixated.pngpa3ofhvvLzw/{domain}/point_407__view_20a0c1671ff5485da75261be763ef9db__{domain}_fixated.pngpa3ofhvvLzw/{domain}/point_407__view_341e14cc33c44cd48cbe1230272270db__{domain}_fixated.pngpa3ofhvvLzw/{domain}/point_407__view_3b9c05000fcf40d3b4e5255626303b39__{domain}_fixated.pngpa3ofhvvLzw/{domain}/point_407__view_7cc913e4f8b3446497b0bd2c4e848674__{domain}_fixated.pngpa3ofhvvLzw/{domain}/point_407__view_bdafdf26f6c04a478d51b26a10fc7488__{domain}_fixated.pngpa3ofhvvLzw/{domain}/point_407__view_d699402350db4c8784d0152f99a4d238__{domain}_fixated.pngpa3ofhvvLzw/{domain}/point_407__view_e35ea8c84afd45869ef2434b420072e4__{domain}_fixated.pngpa3ofhvvLzw/{domain}/point_408__view_0dabb087739b4decbca522ea41d11e2b__{domain}_fixated.pngpa3ofhvvLzw/{domain}/point_408__view_646002c368734698a42fab3232a1039a__{domain}_fixated.pngpa3ofhvvLzw/{domain}/point_408__view_ca1c1fa850f34d8492def93ebfdda01d__{domain}_fixated.pngpa3ofhvvLzw/{domain}/point_409__view_bdafdf26f6c04a478d51b26a10fc7488__{domain}_fixated.pngpa3ofhvvLzw/{domain}/point_409__view_e35ea8c84afd45869ef2434b420072e4__{domain}_fixated.pngpa3ofhvvLzw/{domain}/point_40__view_20a0c1671ff5485da75261be763ef9db__{domain}_fixated.png\x00pa3ofhvvLzw/{domain}/point_40__view_341e14cc33c44cd48cbe1230272270db__{domain}_fixated.png\x00pa3ofhvvLzw/{domain}/point_40__view_3b9c05000fcf40d3b4e5255626303b39__{domain}_fixated.png\x00pa3ofhvvLzw/{domain}/point_40__view_50dbfa23f49345ea8fa6110958d49f71__{domain}_fixated.png\x00pa3ofhvvLzw/{domain}/point_40__view_7cc913e4f8b3446497b0bd2c4e848674__{domain}_fixated.png\x00pa3ofhvvLzw/{domain}/point_40__view_bdafdf26f6c04a478d51b26a10fc7488__{domain}_fixated.png\x00pa3ofhvvLzw/{domain}/point_410__view_20a0c1671ff5485da75261be763ef9db__{domain}_fixated.pngpa3ofhvvLzw/{domain}/point_410__view_3b9c05000fcf40d3b4e5255626303b39__{domain}_fixated.pngpa3ofhvvLzw/{domain}/point_410__view_5882b50dd9144bff89cb5f7d16638355__{domain}_fixated.pngpa3ofhvvLzw/{domain}/point_410__view_7a4a5c985e7e4b5d8b3661653b680303__{domain}_fixated.pngpa3ofhvvLzw/{domain}/point_410__view_7cc913e4f8b3446497b0bd2c4e848674__{domain}_fixated.pngpa3ofhvvLzw/{domain}/point_411__view_646002c368734698a42fab3232a1039a__{domain}_fixated.pngpa3ofhvvLzw/{domain}/point_411__view_e2b1bd0bbf344902bea242bcd2bfba45__{domain}_fixated.pngpa3ofhvvLzw/{domain}/point_412__view_341e14cc33c44cd48cbe1230272270db__{domain}_fixated.pngpa3ofhvvLzw/{domain}/point_412__view_50dbfa23f49345ea8fa6110958d49f71__{domain}_fixated.pngpa3ofhvvLzw/{domain}/point_412__view_5882b50dd9144bff89cb5f7d16638355__{domain}_fixated.pngpa3ofhvvLzw/{domain}/point_412__view_e35ea8c84afd45869ef2434b420072e4__{domain}_fixated.pngpa3ofhvvLzw/{domain}/point_413__view_20a0c1671ff5485da75261be763ef9db__{domain}_fixated.pngpa3ofhvvLzw/{domain}/point_413__view_3b9c05000fcf40d3b4e5255626303b39__{domain}_fixated.pngpa3ofhvvLzw/{domain}/point_413__view_50dbfa23f49345ea8fa6110958d49f71__{domain}_fixated.pngpa3ofhvvLzw/{domain}/point_413__view_7cc913e4f8b3446497b0bd2c4e848674__{domain}_fixated.pngpa3ofhvvLzw/{domain}/point_413__view_bdafdf26f6c04a478d51b26a10fc7488__{domain}_fixated.pngpa3ofhvvLzw/{domain}/point_414__view_695df6af2970408dae4e29bb6b4d45a1__{domain}_fixated.pngpa3ofhvvLzw/{domain}/point_414__view_9312509783424e2c82ed5c10ad350084__{domain}_fixated.pngpa3ofhvvLzw/{domain}/point_415__view_25c8ed4db050433c8d2888f6519fb03c__{domain}_fixated.pngpa3ofhvvLzw/{domain}/point_415__view_9675bde56b2b4b3cbc9f4f48ffdff5a0__{domain}_fixated.pngpa3ofhvvLzw/{domain}/point_416__view_20a0c1671ff5485da75261be763ef9db__{domain}_fixated.pngpa3ofhvvLzw/{domain}/point_416__view_3b9c05000fcf40d3b4e5255626303b39__{domain}_fixated.pngpa3ofhvvLzw/{domain}/point_417__view_20a0c1671ff5485da75261be763ef9db__{domain}_fixated.pngpa3ofhvvLzw/{domain}/point_417__view_341e14cc33c44cd48cbe1230272270db__{domain}_fixated.pngpa3ofhvvLzw/{domain}/point_417__view_3b9c05000fcf40d3b4e5255626303b39__{domain}_fixated.pngpa3ofhvvLzw/{domain}/point_417__view_50dbfa23f49345ea8fa6110958d49f71__{domain}_fixated.pngpa3ofhvvLzw/{domain}/point_417__view_7cc913e4f8b3446497b0bd2c4e848674__{domain}_fixated.pngpa3ofhvvLzw/{domain}/point_417__view_bdafdf26f6c04a478d51b26a10fc7488__{domain}_fixated.pngpa3ofhvvLzw/{domain}/point_417__view_e35ea8c84afd45869ef2434b420072e4__{domain}_fixated.pngpa3ofhvvLzw/{domain}/point_418__view_5882b50dd9144bff89cb5f7d16638355__{domain}_fixated.pngpa3ofhvvLzw/{domain}/point_418__view_bdafdf26f6c04a478d51b26a10fc7488__{domain}_fixated.pngpa3ofhvvLzw/{domain}/point_419__view_53b0970d28744d21ba03ff9bfe2cf20e__{domain}_fixated.pngpa3ofhvvLzw/{domain}/point_419__view_9312509783424e2c82ed5c10ad350084__{domain}_fixated.pngpa3ofhvvLzw/{domain}/point_419__view_9675bde56b2b4b3cbc9f4f48ffdff5a0__{domain}_fixated.pngpa3ofhvvLzw/{domain}/point_419__view_a6ff7ea9259a4d30b3851d811a42bc81__{domain}_fixated.pngpa3ofhvvLzw/{domain}/point_41__view_0dabb087739b4decbca522ea41d11e2b__{domain}_fixated.png\x00pa3ofhvvLzw/{domain}/point_41__view_33c1240bc276484b91c56a080e19bc0b__{domain}_fixated.png\x00pa3ofhvvLzw/{domain}/point_41__view_4aa83e63f5e54cf18aa96220e6472dbc__{domain}_fixated.png\x00pa3ofhvvLzw/{domain}/point_41__view_8549a19947f34117a7c4ae8f48681d81__{domain}_fixated.png\x00pa3ofhvvLzw/{domain}/point_420__view_20a0c1671ff5485da75261be763ef9db__{domain}_fixated.pngpa3ofhvvLzw/{domain}/point_420__view_3aa2e8c84ebd4d588279a6c6cd5bc618__{domain}_fixated.pngpa3ofhvvLzw/{domain}/point_420__view_3b9c05000fcf40d3b4e5255626303b39__{domain}_fixated.pngpa3ofhvvLzw/{domain}/point_420__view_7a4a5c985e7e4b5d8b3661653b680303__{domain}_fixated.pngpa3ofhvvLzw/{domain}/point_420__view_7cc913e4f8b3446497b0bd2c4e848674__{domain}_fixated.pngpa3ofhvvLzw/{domain}/point_420__view_e35ea8c84afd45869ef2434b420072e4__{domain}_fixated.pngpa3ofhvvLzw/{domain}/point_420__view_ea6847c2cb9348178bd0697a5e92ecaa__{domain}_fixated.pngpa3ofhvvLzw/{domain}/point_421__view_0dabb087739b4decbca522ea41d11e2b__{domain}_fixated.pngpa3ofhvvLzw/{domain}/point_421__view_33c1240bc276484b91c56a080e19bc0b__{domain}_fixated.pngpa3ofhvvLzw/{domain}/point_421__view_ca1c1fa850f34d8492def93ebfdda01d__{domain}_fixated.pngpa3ofhvvLzw/{domain}/point_422__view_30e2b3dfb71d4c5cadb454f55f18dad7__{domain}_fixated.pngpa3ofhvvLzw/{domain}/point_422__view_4aa83e63f5e54cf18aa96220e6472dbc__{domain}_fixated.pngpa3ofhvvLzw/{domain}/point_422__view_8549a19947f34117a7c4ae8f48681d81__{domain}_fixated.pngpa3ofhvvLzw/{domain}/point_423__view_0dabb087739b4decbca522ea41d11e2b__{domain}_fixated.pngpa3ofhvvLzw/{domain}/point_423__view_30e2b3dfb71d4c5cadb454f55f18dad7__{domain}_fixated.pngpa3ofhvvLzw/{domain}/point_423__view_4aa83e63f5e54cf18aa96220e6472dbc__{domain}_fixated.pngpa3ofhvvLzw/{domain}/point_423__view_ca1c1fa850f34d8492def93ebfdda01d__{domain}_fixated.pngpa3ofhvvLzw/{domain}/point_423__view_d9bf19f531ac478ba48be1c481bee6e4__{domain}_fixated.pngpa3ofhvvLzw/{domain}/point_424__view_30e2b3dfb71d4c5cadb454f55f18dad7__{domain}_fixated.pngpa3ofhvvLzw/{domain}/point_424__view_33c1240bc276484b91c56a080e19bc0b__{domain}_fixated.pngpa3ofhvvLzw/{domain}/point_424__view_9312509783424e2c82ed5c10ad350084__{domain}_fixated.pngpa3ofhvvLzw/{domain}/point_424__view_d9bf19f531ac478ba48be1c481bee6e4__{domain}_fixated.pngpa3ofhvvLzw/{domain}/point_425__view_50dbfa23f49345ea8fa6110958d49f71__{domain}_fixated.pngpa3ofhvvLzw/{domain}/point_425__view_5882b50dd9144bff89cb5f7d16638355__{domain}_fixated.pngpa3ofhvvLzw/{domain}/point_425__view_bdafdf26f6c04a478d51b26a10fc7488__{domain}_fixated.pngpa3ofhvvLzw/{domain}/point_425__view_e35ea8c84afd45869ef2434b420072e4__{domain}_fixated.pngpa3ofhvvLzw/{domain}/point_426__view_20a0c1671ff5485da75261be763ef9db__{domain}_fixated.pngpa3ofhvvLzw/{domain}/point_426__view_3b9c05000fcf40d3b4e5255626303b39__{domain}_fixated.pngpa3ofhvvLzw/{domain}/point_427__view_50dbfa23f49345ea8fa6110958d49f71__{domain}_fixated.pngpa3ofhvvLzw/{domain}/point_427__view_d699402350db4c8784d0152f99a4d238__{domain}_fixated.pngpa3ofhvvLzw/{domain}/point_428__view_ab2198f82bd74f4f917d15f1ae9db8f2__{domain}_fixated.pngpa3ofhvvLzw/{domain}/point_428__view_e2b1bd0bbf344902bea242bcd2bfba45__{domain}_fixated.pngpa3ofhvvLzw/{domain}/point_429__view_20a0c1671ff5485da75261be763ef9db__{domain}_fixated.pngpa3ofhvvLzw/{domain}/point_429__view_3b9c05000fcf40d3b4e5255626303b39__{domain}_fixated.pngpa3ofhvvLzw/{domain}/point_429__view_e35ea8c84afd45869ef2434b420072e4__{domain}_fixated.pngpa3ofhvvLzw/{domain}/point_42__view_646002c368734698a42fab3232a1039a__{domain}_fixated.png\x00pa3ofhvvLzw/{domain}/point_42__view_695df6af2970408dae4e29bb6b4d45a1__{domain}_fixated.png\x00pa3ofhvvLzw/{domain}/point_42__view_827a2d0be84e41868be3b10d670441bf__{domain}_fixated.png\x00pa3ofhvvLzw/{domain}/point_42__view_ab2198f82bd74f4f917d15f1ae9db8f2__{domain}_fixated.png\x00pa3ofhvvLzw/{domain}/point_42__view_e2b1bd0bbf344902bea242bcd2bfba45__{domain}_fixated.png\x00pa3ofhvvLzw/{domain}/point_430__view_50dbfa23f49345ea8fa6110958d49f71__{domain}_fixated.pngpa3ofhvvLzw/{domain}/point_430__view_5882b50dd9144bff89cb5f7d16638355__{domain}_fixated.pngpa3ofhvvLzw/{domain}/point_431__view_827a2d0be84e41868be3b10d670441bf__{domain}_fixated.pngpa3ofhvvLzw/{domain}/point_431__view_ab2198f82bd74f4f917d15f1ae9db8f2__{domain}_fixated.pngpa3ofhvvLzw/{domain}/point_431__view_e2b1bd0bbf344902bea242bcd2bfba45__{domain}_fixated.pngpa3ofhvvLzw/{domain}/point_432__view_0dabb087739b4decbca522ea41d11e2b__{domain}_fixated.pngpa3ofhvvLzw/{domain}/point_432__view_30e2b3dfb71d4c5cadb454f55f18dad7__{domain}_fixated.pngpa3ofhvvLzw/{domain}/point_432__view_33c1240bc276484b91c56a080e19bc0b__{domain}_fixated.pngpa3ofhvvLzw/{domain}/point_432__view_4aa83e63f5e54cf18aa96220e6472dbc__{domain}_fixated.pngpa3ofhvvLzw/{domain}/point_432__view_9312509783424e2c82ed5c10ad350084__{domain}_fixated.pngpa3ofhvvLzw/{domain}/point_433__view_341e14cc33c44cd48cbe1230272270db__{domain}_fixated.pngpa3ofhvvLzw/{domain}/point_433__view_e35ea8c84afd45869ef2434b420072e4__{domain}_fixated.pngpa3ofhvvLzw/{domain}/point_434__view_341e14cc33c44cd48cbe1230272270db__{domain}_fixated.pngpa3ofhvvLzw/{domain}/point_434__view_50dbfa23f49345ea8fa6110958d49f71__{domain}_fixated.pngpa3ofhvvLzw/{domain}/point_435__view_3aa2e8c84ebd4d588279a6c6cd5bc618__{domain}_fixated.pngpa3ofhvvLzw/{domain}/point_435__view_76df9ef10ad44218b85588588f11520f__{domain}_fixated.pngpa3ofhvvLzw/{domain}/point_435__view_f4efc806a42e47758bb53a223ec24c40__{domain}_fixated.pngpa3ofhvvLzw/{domain}/point_436__view_827a2d0be84e41868be3b10d670441bf__{domain}_fixated.pngpa3ofhvvLzw/{domain}/point_436__view_ab2198f82bd74f4f917d15f1ae9db8f2__{domain}_fixated.pngpa3ofhvvLzw/{domain}/point_437__view_20a0c1671ff5485da75261be763ef9db__{domain}_fixated.pngpa3ofhvvLzw/{domain}/point_437__view_3b9c05000fcf40d3b4e5255626303b39__{domain}_fixated.pngpa3ofhvvLzw/{domain}/point_437__view_7cc913e4f8b3446497b0bd2c4e848674__{domain}_fixated.pngpa3ofhvvLzw/{domain}/point_437__view_bdafdf26f6c04a478d51b26a10fc7488__{domain}_fixated.pngpa3ofhvvLzw/{domain}/point_437__view_e35ea8c84afd45869ef2434b420072e4__{domain}_fixated.pngpa3ofhvvLzw/{domain}/point_438__view_646002c368734698a42fab3232a1039a__{domain}_fixated.pngpa3ofhvvLzw/{domain}/point_438__view_695df6af2970408dae4e29bb6b4d45a1__{domain}_fixated.pngpa3ofhvvLzw/{domain}/point_438__view_827a2d0be84e41868be3b10d670441bf__{domain}_fixated.pngpa3ofhvvLzw/{domain}/point_438__view_ca1c1fa850f34d8492def93ebfdda01d__{domain}_fixated.pngpa3ofhvvLzw/{domain}/point_438__view_e2b1bd0bbf344902bea242bcd2bfba45__{domain}_fixated.pngpa3ofhvvLzw/{domain}/point_439__view_20a0c1671ff5485da75261be763ef9db__{domain}_fixated.pngpa3ofhvvLzw/{domain}/point_439__view_3aa2e8c84ebd4d588279a6c6cd5bc618__{domain}_fixated.pngpa3ofhvvLzw/{domain}/point_439__view_3b9c05000fcf40d3b4e5255626303b39__{domain}_fixated.pngpa3ofhvvLzw/{domain}/point_439__view_5882b50dd9144bff89cb5f7d16638355__{domain}_fixated.pngpa3ofhvvLzw/{domain}/point_439__view_7a4a5c985e7e4b5d8b3661653b680303__{domain}_fixated.pngpa3ofhvvLzw/{domain}/point_439__view_e35ea8c84afd45869ef2434b420072e4__{domain}_fixated.pngpa3ofhvvLzw/{domain}/point_439__view_ea6847c2cb9348178bd0697a5e92ecaa__{domain}_fixated.pngpa3ofhvvLzw/{domain}/point_43__view_5882b50dd9144bff89cb5f7d16638355__{domain}_fixated.png\x00pa3ofhvvLzw/{domain}/point_43__view_7cc913e4f8b3446497b0bd2c4e848674__{domain}_fixated.png\x00pa3ofhvvLzw/{domain}/point_43__view_bdafdf26f6c04a478d51b26a10fc7488__{domain}_fixated.png\x00pa3ofhvvLzw/{domain}/point_43__view_d699402350db4c8784d0152f99a4d238__{domain}_fixated.png\x00pa3ofhvvLzw/{domain}/point_43__view_e35ea8c84afd45869ef2434b420072e4__{domain}_fixated.png\x00pa3ofhvvLzw/{domain}/point_440__view_25c8ed4db050433c8d2888f6519fb03c__{domain}_fixated.pngpa3ofhvvLzw/{domain}/point_440__view_9675bde56b2b4b3cbc9f4f48ffdff5a0__{domain}_fixated.pngpa3ofhvvLzw/{domain}/point_441__view_25c8ed4db050433c8d2888f6519fb03c__{domain}_fixated.pngpa3ofhvvLzw/{domain}/point_441__view_9675bde56b2b4b3cbc9f4f48ffdff5a0__{domain}_fixated.pngpa3ofhvvLzw/{domain}/point_441__view_a6ff7ea9259a4d30b3851d811a42bc81__{domain}_fixated.pngpa3ofhvvLzw/{domain}/point_442__view_53b0970d28744d21ba03ff9bfe2cf20e__{domain}_fixated.pngpa3ofhvvLzw/{domain}/point_442__view_9312509783424e2c82ed5c10ad350084__{domain}_fixated.pngpa3ofhvvLzw/{domain}/point_443__view_53b0970d28744d21ba03ff9bfe2cf20e__{domain}_fixated.pngpa3ofhvvLzw/{domain}/point_443__view_76df9ef10ad44218b85588588f11520f__{domain}_fixated.pngpa3ofhvvLzw/{domain}/point_443__view_9312509783424e2c82ed5c10ad350084__{domain}_fixated.pngpa3ofhvvLzw/{domain}/point_443__view_9675bde56b2b4b3cbc9f4f48ffdff5a0__{domain}_fixated.pngpa3ofhvvLzw/{domain}/point_443__view_a6ff7ea9259a4d30b3851d811a42bc81__{domain}_fixated.pngpa3ofhvvLzw/{domain}/point_443__view_f4efc806a42e47758bb53a223ec24c40__{domain}_fixated.pngpa3ofhvvLzw/{domain}/point_444__view_3b9c05000fcf40d3b4e5255626303b39__{domain}_fixated.pngpa3ofhvvLzw/{domain}/point_444__view_50dbfa23f49345ea8fa6110958d49f71__{domain}_fixated.pngpa3ofhvvLzw/{domain}/point_444__view_7cc913e4f8b3446497b0bd2c4e848674__{domain}_fixated.pngpa3ofhvvLzw/{domain}/point_444__view_bdafdf26f6c04a478d51b26a10fc7488__{domain}_fixated.pngpa3ofhvvLzw/{domain}/point_444__view_e35ea8c84afd45869ef2434b420072e4__{domain}_fixated.pngpa3ofhvvLzw/{domain}/point_445__view_20a0c1671ff5485da75261be763ef9db__{domain}_fixated.pngpa3ofhvvLzw/{domain}/point_445__view_341e14cc33c44cd48cbe1230272270db__{domain}_fixated.pngpa3ofhvvLzw/{domain}/point_445__view_3b9c05000fcf40d3b4e5255626303b39__{domain}_fixated.pngpa3ofhvvLzw/{domain}/point_445__view_e35ea8c84afd45869ef2434b420072e4__{domain}_fixated.pngpa3ofhvvLzw/{domain}/point_446__view_20a0c1671ff5485da75261be763ef9db__{domain}_fixated.pngpa3ofhvvLzw/{domain}/point_446__view_341e14cc33c44cd48cbe1230272270db__{domain}_fixated.pngpa3ofhvvLzw/{domain}/point_446__view_3b9c05000fcf40d3b4e5255626303b39__{domain}_fixated.pngpa3ofhvvLzw/{domain}/point_447__view_53b0970d28744d21ba03ff9bfe2cf20e__{domain}_fixated.pngpa3ofhvvLzw/{domain}/point_447__view_9312509783424e2c82ed5c10ad350084__{domain}_fixated.pngpa3ofhvvLzw/{domain}/point_448__view_695df6af2970408dae4e29bb6b4d45a1__{domain}_fixated.pngpa3ofhvvLzw/{domain}/point_448__view_ab2198f82bd74f4f917d15f1ae9db8f2__{domain}_fixated.pngpa3ofhvvLzw/{domain}/point_448__view_ca1c1fa850f34d8492def93ebfdda01d__{domain}_fixated.pngpa3ofhvvLzw/{domain}/point_449__view_00be6a3da05445bbb3b411fa774a3448__{domain}_fixated.pngpa3ofhvvLzw/{domain}/point_449__view_646002c368734698a42fab3232a1039a__{domain}_fixated.pngpa3ofhvvLzw/{domain}/point_449__view_827a2d0be84e41868be3b10d670441bf__{domain}_fixated.pngpa3ofhvvLzw/{domain}/point_449__view_ab2198f82bd74f4f917d15f1ae9db8f2__{domain}_fixated.pngpa3ofhvvLzw/{domain}/point_449__view_ca1c1fa850f34d8492def93ebfdda01d__{domain}_fixated.pngpa3ofhvvLzw/{domain}/point_449__view_e2b1bd0bbf344902bea242bcd2bfba45__{domain}_fixated.pngpa3ofhvvLzw/{domain}/point_44__view_0dabb087739b4decbca522ea41d11e2b__{domain}_fixated.png\x00pa3ofhvvLzw/{domain}/point_44__view_33c1240bc276484b91c56a080e19bc0b__{domain}_fixated.png\x00pa3ofhvvLzw/{domain}/point_44__view_a6ff7ea9259a4d30b3851d811a42bc81__{domain}_fixated.png\x00pa3ofhvvLzw/{domain}/point_450__view_20a0c1671ff5485da75261be763ef9db__{domain}_fixated.pngpa3ofhvvLzw/{domain}/point_450__view_341e14cc33c44cd48cbe1230272270db__{domain}_fixated.pngpa3ofhvvLzw/{domain}/point_451__view_50dbfa23f49345ea8fa6110958d49f71__{domain}_fixated.pngpa3ofhvvLzw/{domain}/point_451__view_5882b50dd9144bff89cb5f7d16638355__{domain}_fixated.pngpa3ofhvvLzw/{domain}/point_452__view_20a0c1671ff5485da75261be763ef9db__{domain}_fixated.pngpa3ofhvvLzw/{domain}/point_452__view_3b9c05000fcf40d3b4e5255626303b39__{domain}_fixated.pngpa3ofhvvLzw/{domain}/point_452__view_50dbfa23f49345ea8fa6110958d49f71__{domain}_fixated.pngpa3ofhvvLzw/{domain}/point_452__view_7cc913e4f8b3446497b0bd2c4e848674__{domain}_fixated.pngpa3ofhvvLzw/{domain}/point_452__view_bdafdf26f6c04a478d51b26a10fc7488__{domain}_fixated.pngpa3ofhvvLzw/{domain}/point_453__view_646002c368734698a42fab3232a1039a__{domain}_fixated.pngpa3ofhvvLzw/{domain}/point_453__view_e2b1bd0bbf344902bea242bcd2bfba45__{domain}_fixated.pngpa3ofhvvLzw/{domain}/point_454__view_646002c368734698a42fab3232a1039a__{domain}_fixated.pngpa3ofhvvLzw/{domain}/point_454__view_ab2198f82bd74f4f917d15f1ae9db8f2__{domain}_fixated.pngpa3ofhvvLzw/{domain}/point_454__view_e2b1bd0bbf344902bea242bcd2bfba45__{domain}_fixated.pngpa3ofhvvLzw/{domain}/point_455__view_20a0c1671ff5485da75261be763ef9db__{domain}_fixated.pngpa3ofhvvLzw/{domain}/point_455__view_3b9c05000fcf40d3b4e5255626303b39__{domain}_fixated.pngpa3ofhvvLzw/{domain}/point_455__view_7cc913e4f8b3446497b0bd2c4e848674__{domain}_fixated.pngpa3ofhvvLzw/{domain}/point_455__view_bdafdf26f6c04a478d51b26a10fc7488__{domain}_fixated.pngpa3ofhvvLzw/{domain}/point_456__view_695df6af2970408dae4e29bb6b4d45a1__{domain}_fixated.pngpa3ofhvvLzw/{domain}/point_456__view_ca1c1fa850f34d8492def93ebfdda01d__{domain}_fixated.pngpa3ofhvvLzw/{domain}/point_457__view_20a0c1671ff5485da75261be763ef9db__{domain}_fixated.pngpa3ofhvvLzw/{domain}/point_457__view_3b9c05000fcf40d3b4e5255626303b39__{domain}_fixated.pngpa3ofhvvLzw/{domain}/point_457__view_7cc913e4f8b3446497b0bd2c4e848674__{domain}_fixated.pngpa3ofhvvLzw/{domain}/point_457__view_bdafdf26f6c04a478d51b26a10fc7488__{domain}_fixated.pngpa3ofhvvLzw/{domain}/point_458__view_5882b50dd9144bff89cb5f7d16638355__{domain}_fixated.pngpa3ofhvvLzw/{domain}/point_458__view_7a4a5c985e7e4b5d8b3661653b680303__{domain}_fixated.pngpa3ofhvvLzw/{domain}/point_459__view_3b9c05000fcf40d3b4e5255626303b39__{domain}_fixated.pngpa3ofhvvLzw/{domain}/point_459__view_50dbfa23f49345ea8fa6110958d49f71__{domain}_fixated.pngpa3ofhvvLzw/{domain}/point_459__view_5882b50dd9144bff89cb5f7d16638355__{domain}_fixated.pngpa3ofhvvLzw/{domain}/point_459__view_d699402350db4c8784d0152f99a4d238__{domain}_fixated.pngpa3ofhvvLzw/{domain}/point_45__view_20a0c1671ff5485da75261be763ef9db__{domain}_fixated.png\x00pa3ofhvvLzw/{domain}/point_45__view_341e14cc33c44cd48cbe1230272270db__{domain}_fixated.png\x00pa3ofhvvLzw/{domain}/point_45__view_3b9c05000fcf40d3b4e5255626303b39__{domain}_fixated.png\x00pa3ofhvvLzw/{domain}/point_45__view_7cc913e4f8b3446497b0bd2c4e848674__{domain}_fixated.png\x00pa3ofhvvLzw/{domain}/point_45__view_bdafdf26f6c04a478d51b26a10fc7488__{domain}_fixated.png\x00pa3ofhvvLzw/{domain}/point_45__view_e35ea8c84afd45869ef2434b420072e4__{domain}_fixated.png\x00pa3ofhvvLzw/{domain}/point_460__view_30e2b3dfb71d4c5cadb454f55f18dad7__{domain}_fixated.pngpa3ofhvvLzw/{domain}/point_460__view_33c1240bc276484b91c56a080e19bc0b__{domain}_fixated.pngpa3ofhvvLzw/{domain}/point_460__view_4aa83e63f5e54cf18aa96220e6472dbc__{domain}_fixated.pngpa3ofhvvLzw/{domain}/point_460__view_8549a19947f34117a7c4ae8f48681d81__{domain}_fixated.pngpa3ofhvvLzw/{domain}/point_461__view_50dbfa23f49345ea8fa6110958d49f71__{domain}_fixated.pngpa3ofhvvLzw/{domain}/point_461__view_5882b50dd9144bff89cb5f7d16638355__{domain}_fixated.pngpa3ofhvvLzw/{domain}/point_461__view_bdafdf26f6c04a478d51b26a10fc7488__{domain}_fixated.pngpa3ofhvvLzw/{domain}/point_462__view_7cc913e4f8b3446497b0bd2c4e848674__{domain}_fixated.pngpa3ofhvvLzw/{domain}/point_462__view_bdafdf26f6c04a478d51b26a10fc7488__{domain}_fixated.pngpa3ofhvvLzw/{domain}/point_463__view_9675bde56b2b4b3cbc9f4f48ffdff5a0__{domain}_fixated.pngpa3ofhvvLzw/{domain}/point_463__view_a6ff7ea9259a4d30b3851d811a42bc81__{domain}_fixated.pngpa3ofhvvLzw/{domain}/point_464__view_0dabb087739b4decbca522ea41d11e2b__{domain}_fixated.pngpa3ofhvvLzw/{domain}/point_464__view_33c1240bc276484b91c56a080e19bc0b__{domain}_fixated.pngpa3ofhvvLzw/{domain}/point_464__view_ab2198f82bd74f4f917d15f1ae9db8f2__{domain}_fixated.pngpa3ofhvvLzw/{domain}/point_465__view_25c8ed4db050433c8d2888f6519fb03c__{domain}_fixated.pngpa3ofhvvLzw/{domain}/point_465__view_9675bde56b2b4b3cbc9f4f48ffdff5a0__{domain}_fixated.pngpa3ofhvvLzw/{domain}/point_465__view_a6ff7ea9259a4d30b3851d811a42bc81__{domain}_fixated.pngpa3ofhvvLzw/{domain}/point_466__view_20a0c1671ff5485da75261be763ef9db__{domain}_fixated.pngpa3ofhvvLzw/{domain}/point_466__view_3b9c05000fcf40d3b4e5255626303b39__{domain}_fixated.pngpa3ofhvvLzw/{domain}/point_466__view_7cc913e4f8b3446497b0bd2c4e848674__{domain}_fixated.pngpa3ofhvvLzw/{domain}/point_467__view_25c8ed4db050433c8d2888f6519fb03c__{domain}_fixated.pngpa3ofhvvLzw/{domain}/point_467__view_30e2b3dfb71d4c5cadb454f55f18dad7__{domain}_fixated.pngpa3ofhvvLzw/{domain}/point_467__view_9675bde56b2b4b3cbc9f4f48ffdff5a0__{domain}_fixated.pngpa3ofhvvLzw/{domain}/point_467__view_a6ff7ea9259a4d30b3851d811a42bc81__{domain}_fixated.pngpa3ofhvvLzw/{domain}/point_468__view_341e14cc33c44cd48cbe1230272270db__{domain}_fixated.pngpa3ofhvvLzw/{domain}/point_468__view_e35ea8c84afd45869ef2434b420072e4__{domain}_fixated.pngpa3ofhvvLzw/{domain}/point_469__view_50dbfa23f49345ea8fa6110958d49f71__{domain}_fixated.pngpa3ofhvvLzw/{domain}/point_469__view_5882b50dd9144bff89cb5f7d16638355__{domain}_fixated.pngpa3ofhvvLzw/{domain}/point_469__view_bdafdf26f6c04a478d51b26a10fc7488__{domain}_fixated.pngpa3ofhvvLzw/{domain}/point_46__view_76df9ef10ad44218b85588588f11520f__{domain}_fixated.png\x00pa3ofhvvLzw/{domain}/point_46__view_f4efc806a42e47758bb53a223ec24c40__{domain}_fixated.png\x00pa3ofhvvLzw/{domain}/point_470__view_30e2b3dfb71d4c5cadb454f55f18dad7__{domain}_fixated.pngpa3ofhvvLzw/{domain}/point_470__view_4aa83e63f5e54cf18aa96220e6472dbc__{domain}_fixated.pngpa3ofhvvLzw/{domain}/point_470__view_a6ff7ea9259a4d30b3851d811a42bc81__{domain}_fixated.pngpa3ofhvvLzw/{domain}/point_471__view_20a0c1671ff5485da75261be763ef9db__{domain}_fixated.pngpa3ofhvvLzw/{domain}/point_471__view_3aa2e8c84ebd4d588279a6c6cd5bc618__{domain}_fixated.pngpa3ofhvvLzw/{domain}/point_471__view_3b9c05000fcf40d3b4e5255626303b39__{domain}_fixated.pngpa3ofhvvLzw/{domain}/point_471__view_5882b50dd9144bff89cb5f7d16638355__{domain}_fixated.pngpa3ofhvvLzw/{domain}/point_471__view_7a4a5c985e7e4b5d8b3661653b680303__{domain}_fixated.pngpa3ofhvvLzw/{domain}/point_471__view_7cc913e4f8b3446497b0bd2c4e848674__{domain}_fixated.pngpa3ofhvvLzw/{domain}/point_472__view_0dabb087739b4decbca522ea41d11e2b__{domain}_fixated.pngpa3ofhvvLzw/{domain}/point_472__view_ca1c1fa850f34d8492def93ebfdda01d__{domain}_fixated.pngpa3ofhvvLzw/{domain}/point_473__view_20a0c1671ff5485da75261be763ef9db__{domain}_fixated.pngpa3ofhvvLzw/{domain}/point_473__view_341e14cc33c44cd48cbe1230272270db__{domain}_fixated.pngpa3ofhvvLzw/{domain}/point_473__view_3b9c05000fcf40d3b4e5255626303b39__{domain}_fixated.pngpa3ofhvvLzw/{domain}/point_473__view_7cc913e4f8b3446497b0bd2c4e848674__{domain}_fixated.pngpa3ofhvvLzw/{domain}/point_473__view_e35ea8c84afd45869ef2434b420072e4__{domain}_fixated.pngpa3ofhvvLzw/{domain}/point_474__view_25c8ed4db050433c8d2888f6519fb03c__{domain}_fixated.pngpa3ofhvvLzw/{domain}/point_474__view_30e2b3dfb71d4c5cadb454f55f18dad7__{domain}_fixated.pngpa3ofhvvLzw/{domain}/point_474__view_4aa83e63f5e54cf18aa96220e6472dbc__{domain}_fixated.pngpa3ofhvvLzw/{domain}/point_474__view_9675bde56b2b4b3cbc9f4f48ffdff5a0__{domain}_fixated.pngpa3ofhvvLzw/{domain}/point_474__view_a6ff7ea9259a4d30b3851d811a42bc81__{domain}_fixated.pngpa3ofhvvLzw/{domain}/point_475__view_00be6a3da05445bbb3b411fa774a3448__{domain}_fixated.pngpa3ofhvvLzw/{domain}/point_475__view_827a2d0be84e41868be3b10d670441bf__{domain}_fixated.pngpa3ofhvvLzw/{domain}/point_475__view_ab2198f82bd74f4f917d15f1ae9db8f2__{domain}_fixated.pngpa3ofhvvLzw/{domain}/point_475__view_ca1c1fa850f34d8492def93ebfdda01d__{domain}_fixated.pngpa3ofhvvLzw/{domain}/point_475__view_e2b1bd0bbf344902bea242bcd2bfba45__{domain}_fixated.pngpa3ofhvvLzw/{domain}/point_476__view_20a0c1671ff5485da75261be763ef9db__{domain}_fixated.pngpa3ofhvvLzw/{domain}/point_476__view_3b9c05000fcf40d3b4e5255626303b39__{domain}_fixated.pngpa3ofhvvLzw/{domain}/point_476__view_d699402350db4c8784d0152f99a4d238__{domain}_fixated.pngpa3ofhvvLzw/{domain}/point_477__view_20a0c1671ff5485da75261be763ef9db__{domain}_fixated.pngpa3ofhvvLzw/{domain}/point_477__view_5882b50dd9144bff89cb5f7d16638355__{domain}_fixated.pngpa3ofhvvLzw/{domain}/point_477__view_e35ea8c84afd45869ef2434b420072e4__{domain}_fixated.pngpa3ofhvvLzw/{domain}/point_478__view_341e14cc33c44cd48cbe1230272270db__{domain}_fixated.pngpa3ofhvvLzw/{domain}/point_478__view_50dbfa23f49345ea8fa6110958d49f71__{domain}_fixated.pngpa3ofhvvLzw/{domain}/point_478__view_5882b50dd9144bff89cb5f7d16638355__{domain}_fixated.pngpa3ofhvvLzw/{domain}/point_478__view_e35ea8c84afd45869ef2434b420072e4__{domain}_fixated.pngpa3ofhvvLzw/{domain}/point_479__view_0dabb087739b4decbca522ea41d11e2b__{domain}_fixated.pngpa3ofhvvLzw/{domain}/point_479__view_ca1c1fa850f34d8492def93ebfdda01d__{domain}_fixated.pngpa3ofhvvLzw/{domain}/point_47__view_20a0c1671ff5485da75261be763ef9db__{domain}_fixated.png\x00pa3ofhvvLzw/{domain}/point_47__view_3b9c05000fcf40d3b4e5255626303b39__{domain}_fixated.png\x00pa3ofhvvLzw/{domain}/point_47__view_7cc913e4f8b3446497b0bd2c4e848674__{domain}_fixated.png\x00pa3ofhvvLzw/{domain}/point_47__view_e35ea8c84afd45869ef2434b420072e4__{domain}_fixated.png\x00pa3ofhvvLzw/{domain}/point_47__view_ea6847c2cb9348178bd0697a5e92ecaa__{domain}_fixated.png\x00pa3ofhvvLzw/{domain}/point_480__view_4aa83e63f5e54cf18aa96220e6472dbc__{domain}_fixated.pngpa3ofhvvLzw/{domain}/point_480__view_827a2d0be84e41868be3b10d670441bf__{domain}_fixated.pngpa3ofhvvLzw/{domain}/point_480__view_ab2198f82bd74f4f917d15f1ae9db8f2__{domain}_fixated.pngpa3ofhvvLzw/{domain}/point_481__view_25c8ed4db050433c8d2888f6519fb03c__{domain}_fixated.pngpa3ofhvvLzw/{domain}/point_481__view_30e2b3dfb71d4c5cadb454f55f18dad7__{domain}_fixated.pngpa3ofhvvLzw/{domain}/point_481__view_4aa83e63f5e54cf18aa96220e6472dbc__{domain}_fixated.pngpa3ofhvvLzw/{domain}/point_481__view_9675bde56b2b4b3cbc9f4f48ffdff5a0__{domain}_fixated.pngpa3ofhvvLzw/{domain}/point_481__view_a6ff7ea9259a4d30b3851d811a42bc81__{domain}_fixated.pngpa3ofhvvLzw/{domain}/point_482__view_53b0970d28744d21ba03ff9bfe2cf20e__{domain}_fixated.pngpa3ofhvvLzw/{domain}/point_482__view_76df9ef10ad44218b85588588f11520f__{domain}_fixated.pngpa3ofhvvLzw/{domain}/point_482__view_9312509783424e2c82ed5c10ad350084__{domain}_fixated.pngpa3ofhvvLzw/{domain}/point_482__view_9675bde56b2b4b3cbc9f4f48ffdff5a0__{domain}_fixated.pngpa3ofhvvLzw/{domain}/point_482__view_a6ff7ea9259a4d30b3851d811a42bc81__{domain}_fixated.pngpa3ofhvvLzw/{domain}/point_482__view_f4efc806a42e47758bb53a223ec24c40__{domain}_fixated.pngpa3ofhvvLzw/{domain}/point_483__view_341e14cc33c44cd48cbe1230272270db__{domain}_fixated.pngpa3ofhvvLzw/{domain}/point_483__view_e35ea8c84afd45869ef2434b420072e4__{domain}_fixated.pngpa3ofhvvLzw/{domain}/point_484__view_20a0c1671ff5485da75261be763ef9db__{domain}_fixated.pngpa3ofhvvLzw/{domain}/point_484__view_341e14cc33c44cd48cbe1230272270db__{domain}_fixated.pngpa3ofhvvLzw/{domain}/point_485__view_5882b50dd9144bff89cb5f7d16638355__{domain}_fixated.pngpa3ofhvvLzw/{domain}/point_485__view_7cc913e4f8b3446497b0bd2c4e848674__{domain}_fixated.pngpa3ofhvvLzw/{domain}/point_485__view_bdafdf26f6c04a478d51b26a10fc7488__{domain}_fixated.pngpa3ofhvvLzw/{domain}/point_485__view_e35ea8c84afd45869ef2434b420072e4__{domain}_fixated.pngpa3ofhvvLzw/{domain}/point_486__view_341e14cc33c44cd48cbe1230272270db__{domain}_fixated.pngpa3ofhvvLzw/{domain}/point_486__view_e35ea8c84afd45869ef2434b420072e4__{domain}_fixated.pngpa3ofhvvLzw/{domain}/point_487__view_30e2b3dfb71d4c5cadb454f55f18dad7__{domain}_fixated.pngpa3ofhvvLzw/{domain}/point_487__view_9675bde56b2b4b3cbc9f4f48ffdff5a0__{domain}_fixated.pngpa3ofhvvLzw/{domain}/point_487__view_a6ff7ea9259a4d30b3851d811a42bc81__{domain}_fixated.pngpa3ofhvvLzw/{domain}/point_488__view_3aa2e8c84ebd4d588279a6c6cd5bc618__{domain}_fixated.pngpa3ofhvvLzw/{domain}/point_488__view_76df9ef10ad44218b85588588f11520f__{domain}_fixated.pngpa3ofhvvLzw/{domain}/point_488__view_f4efc806a42e47758bb53a223ec24c40__{domain}_fixated.pngpa3ofhvvLzw/{domain}/point_489__view_ab2198f82bd74f4f917d15f1ae9db8f2__{domain}_fixated.pngpa3ofhvvLzw/{domain}/point_489__view_e2b1bd0bbf344902bea242bcd2bfba45__{domain}_fixated.pngpa3ofhvvLzw/{domain}/point_48__view_53b0970d28744d21ba03ff9bfe2cf20e__{domain}_fixated.png\x00pa3ofhvvLzw/{domain}/point_48__view_9312509783424e2c82ed5c10ad350084__{domain}_fixated.png\x00pa3ofhvvLzw/{domain}/point_48__view_d9bf19f531ac478ba48be1c481bee6e4__{domain}_fixated.png\x00pa3ofhvvLzw/{domain}/point_490__view_20a0c1671ff5485da75261be763ef9db__{domain}_fixated.pngpa3ofhvvLzw/{domain}/point_490__view_3b9c05000fcf40d3b4e5255626303b39__{domain}_fixated.pngpa3ofhvvLzw/{domain}/point_490__view_7cc913e4f8b3446497b0bd2c4e848674__{domain}_fixated.pngpa3ofhvvLzw/{domain}/point_490__view_bdafdf26f6c04a478d51b26a10fc7488__{domain}_fixated.pngpa3ofhvvLzw/{domain}/point_491__view_25c8ed4db050433c8d2888f6519fb03c__{domain}_fixated.pngpa3ofhvvLzw/{domain}/point_491__view_9675bde56b2b4b3cbc9f4f48ffdff5a0__{domain}_fixated.pngpa3ofhvvLzw/{domain}/point_492__view_30e2b3dfb71d4c5cadb454f55f18dad7__{domain}_fixated.pngpa3ofhvvLzw/{domain}/point_492__view_4aa83e63f5e54cf18aa96220e6472dbc__{domain}_fixated.pngpa3ofhvvLzw/{domain}/point_492__view_9312509783424e2c82ed5c10ad350084__{domain}_fixated.pngpa3ofhvvLzw/{domain}/point_493__view_0dabb087739b4decbca522ea41d11e2b__{domain}_fixated.pngpa3ofhvvLzw/{domain}/point_493__view_33c1240bc276484b91c56a080e19bc0b__{domain}_fixated.pngpa3ofhvvLzw/{domain}/point_493__view_a6ff7ea9259a4d30b3851d811a42bc81__{domain}_fixated.pngpa3ofhvvLzw/{domain}/point_493__view_ca1c1fa850f34d8492def93ebfdda01d__{domain}_fixated.pngpa3ofhvvLzw/{domain}/point_494__view_50dbfa23f49345ea8fa6110958d49f71__{domain}_fixated.pngpa3ofhvvLzw/{domain}/point_494__view_d699402350db4c8784d0152f99a4d238__{domain}_fixated.pngpa3ofhvvLzw/{domain}/point_495__view_3b9c05000fcf40d3b4e5255626303b39__{domain}_fixated.pngpa3ofhvvLzw/{domain}/point_495__view_50dbfa23f49345ea8fa6110958d49f71__{domain}_fixated.pngpa3ofhvvLzw/{domain}/point_495__view_5882b50dd9144bff89cb5f7d16638355__{domain}_fixated.pngpa3ofhvvLzw/{domain}/point_495__view_d699402350db4c8784d0152f99a4d238__{domain}_fixated.pngpa3ofhvvLzw/{domain}/point_496__view_50dbfa23f49345ea8fa6110958d49f71__{domain}_fixated.pngpa3ofhvvLzw/{domain}/point_496__view_d699402350db4c8784d0152f99a4d238__{domain}_fixated.pngpa3ofhvvLzw/{domain}/point_497__view_20a0c1671ff5485da75261be763ef9db__{domain}_fixated.pngpa3ofhvvLzw/{domain}/point_497__view_341e14cc33c44cd48cbe1230272270db__{domain}_fixated.pngpa3ofhvvLzw/{domain}/point_497__view_3b9c05000fcf40d3b4e5255626303b39__{domain}_fixated.pngpa3ofhvvLzw/{domain}/point_497__view_e35ea8c84afd45869ef2434b420072e4__{domain}_fixated.pngpa3ofhvvLzw/{domain}/point_498__view_ab2198f82bd74f4f917d15f1ae9db8f2__{domain}_fixated.pngpa3ofhvvLzw/{domain}/point_498__view_e2b1bd0bbf344902bea242bcd2bfba45__{domain}_fixated.pngpa3ofhvvLzw/{domain}/point_499__view_341e14cc33c44cd48cbe1230272270db__{domain}_fixated.pngpa3ofhvvLzw/{domain}/point_499__view_5882b50dd9144bff89cb5f7d16638355__{domain}_fixated.pngpa3ofhvvLzw/{domain}/point_499__view_e35ea8c84afd45869ef2434b420072e4__{domain}_fixated.pngpa3ofhvvLzw/{domain}/point_49__view_20a0c1671ff5485da75261be763ef9db__{domain}_fixated.png\x00pa3ofhvvLzw/{domain}/point_49__view_3b9c05000fcf40d3b4e5255626303b39__{domain}_fixated.png\x00pa3ofhvvLzw/{domain}/point_49__view_7cc913e4f8b3446497b0bd2c4e848674__{domain}_fixated.png\x00pa3ofhvvLzw/{domain}/point_49__view_bdafdf26f6c04a478d51b26a10fc7488__{domain}_fixated.png\x00pa3ofhvvLzw/{domain}/point_4__view_646002c368734698a42fab3232a1039a__{domain}_fixated.png\x00\x00pa3ofhvvLzw/{domain}/point_4__view_e2b1bd0bbf344902bea242bcd2bfba45__{domain}_fixated.png\x00\x00pa3ofhvvLzw/{domain}/point_50__view_5882b50dd9144bff89cb5f7d16638355__{domain}_fixated.png\x00pa3ofhvvLzw/{domain}/point_50__view_bdafdf26f6c04a478d51b26a10fc7488__{domain}_fixated.png\x00pa3ofhvvLzw/{domain}/point_51__view_53b0970d28744d21ba03ff9bfe2cf20e__{domain}_fixated.png\x00pa3ofhvvLzw/{domain}/point_51__view_9312509783424e2c82ed5c10ad350084__{domain}_fixated.png\x00pa3ofhvvLzw/{domain}/point_52__view_0dabb087739b4decbca522ea41d11e2b__{domain}_fixated.png\x00pa3ofhvvLzw/{domain}/point_52__view_25c8ed4db050433c8d2888f6519fb03c__{domain}_fixated.png\x00pa3ofhvvLzw/{domain}/point_52__view_33c1240bc276484b91c56a080e19bc0b__{domain}_fixated.png\x00pa3ofhvvLzw/{domain}/point_52__view_695df6af2970408dae4e29bb6b4d45a1__{domain}_fixated.png\x00pa3ofhvvLzw/{domain}/point_52__view_9675bde56b2b4b3cbc9f4f48ffdff5a0__{domain}_fixated.png\x00pa3ofhvvLzw/{domain}/point_52__view_a6ff7ea9259a4d30b3851d811a42bc81__{domain}_fixated.png\x00pa3ofhvvLzw/{domain}/point_52__view_ca1c1fa850f34d8492def93ebfdda01d__{domain}_fixated.png\x00pa3ofhvvLzw/{domain}/point_53__view_25c8ed4db050433c8d2888f6519fb03c__{domain}_fixated.png\x00pa3ofhvvLzw/{domain}/point_53__view_9675bde56b2b4b3cbc9f4f48ffdff5a0__{domain}_fixated.png\x00pa3ofhvvLzw/{domain}/point_54__view_25c8ed4db050433c8d2888f6519fb03c__{domain}_fixated.png\x00pa3ofhvvLzw/{domain}/point_54__view_30e2b3dfb71d4c5cadb454f55f18dad7__{domain}_fixated.png\x00pa3ofhvvLzw/{domain}/point_54__view_9675bde56b2b4b3cbc9f4f48ffdff5a0__{domain}_fixated.png\x00pa3ofhvvLzw/{domain}/point_54__view_a6ff7ea9259a4d30b3851d811a42bc81__{domain}_fixated.png\x00pa3ofhvvLzw/{domain}/point_55__view_ab2198f82bd74f4f917d15f1ae9db8f2__{domain}_fixated.png\x00pa3ofhvvLzw/{domain}/point_55__view_e2b1bd0bbf344902bea242bcd2bfba45__{domain}_fixated.png\x00pa3ofhvvLzw/{domain}/point_56__view_25c8ed4db050433c8d2888f6519fb03c__{domain}_fixated.png\x00pa3ofhvvLzw/{domain}/point_56__view_4aa83e63f5e54cf18aa96220e6472dbc__{domain}_fixated.png\x00pa3ofhvvLzw/{domain}/point_56__view_9675bde56b2b4b3cbc9f4f48ffdff5a0__{domain}_fixated.png\x00pa3ofhvvLzw/{domain}/point_56__view_a6ff7ea9259a4d30b3851d811a42bc81__{domain}_fixated.png\x00pa3ofhvvLzw/{domain}/point_57__view_00be6a3da05445bbb3b411fa774a3448__{domain}_fixated.png\x00pa3ofhvvLzw/{domain}/point_57__view_ab2198f82bd74f4f917d15f1ae9db8f2__{domain}_fixated.png\x00pa3ofhvvLzw/{domain}/point_57__view_ca1c1fa850f34d8492def93ebfdda01d__{domain}_fixated.png\x00pa3ofhvvLzw/{domain}/point_58__view_341e14cc33c44cd48cbe1230272270db__{domain}_fixated.png\x00pa3ofhvvLzw/{domain}/point_58__view_3b9c05000fcf40d3b4e5255626303b39__{domain}_fixated.png\x00pa3ofhvvLzw/{domain}/point_58__view_7cc913e4f8b3446497b0bd2c4e848674__{domain}_fixated.png\x00pa3ofhvvLzw/{domain}/point_58__view_bdafdf26f6c04a478d51b26a10fc7488__{domain}_fixated.png\x00pa3ofhvvLzw/{domain}/point_58__view_e35ea8c84afd45869ef2434b420072e4__{domain}_fixated.png\x00pa3ofhvvLzw/{domain}/point_59__view_00be6a3da05445bbb3b411fa774a3448__{domain}_fixated.png\x00pa3ofhvvLzw/{domain}/point_59__view_827a2d0be84e41868be3b10d670441bf__{domain}_fixated.png\x00pa3ofhvvLzw/{domain}/point_5__view_20a0c1671ff5485da75261be763ef9db__{domain}_fixated.png\x00\x00pa3ofhvvLzw/{domain}/point_5__view_341e14cc33c44cd48cbe1230272270db__{domain}_fixated.png\x00\x00pa3ofhvvLzw/{domain}/point_5__view_3b9c05000fcf40d3b4e5255626303b39__{domain}_fixated.png\x00\x00pa3ofhvvLzw/{domain}/point_5__view_7cc913e4f8b3446497b0bd2c4e848674__{domain}_fixated.png\x00\x00pa3ofhvvLzw/{domain}/point_5__view_bdafdf26f6c04a478d51b26a10fc7488__{domain}_fixated.png\x00\x00pa3ofhvvLzw/{domain}/point_60__view_695df6af2970408dae4e29bb6b4d45a1__{domain}_fixated.png\x00pa3ofhvvLzw/{domain}/point_60__view_ab2198f82bd74f4f917d15f1ae9db8f2__{domain}_fixated.png\x00pa3ofhvvLzw/{domain}/point_61__view_5882b50dd9144bff89cb5f7d16638355__{domain}_fixated.png\x00pa3ofhvvLzw/{domain}/point_61__view_e35ea8c84afd45869ef2434b420072e4__{domain}_fixated.png\x00pa3ofhvvLzw/{domain}/point_62__view_0dabb087739b4decbca522ea41d11e2b__{domain}_fixated.png\x00pa3ofhvvLzw/{domain}/point_62__view_4aa83e63f5e54cf18aa96220e6472dbc__{domain}_fixated.png\x00pa3ofhvvLzw/{domain}/point_62__view_ca1c1fa850f34d8492def93ebfdda01d__{domain}_fixated.png\x00pa3ofhvvLzw/{domain}/point_62__view_d9bf19f531ac478ba48be1c481bee6e4__{domain}_fixated.png\x00pa3ofhvvLzw/{domain}/point_63__view_00be6a3da05445bbb3b411fa774a3448__{domain}_fixated.png\x00pa3ofhvvLzw/{domain}/point_63__view_646002c368734698a42fab3232a1039a__{domain}_fixated.png\x00pa3ofhvvLzw/{domain}/point_63__view_827a2d0be84e41868be3b10d670441bf__{domain}_fixated.png\x00pa3ofhvvLzw/{domain}/point_63__view_e2b1bd0bbf344902bea242bcd2bfba45__{domain}_fixated.png\x00pa3ofhvvLzw/{domain}/point_64__view_20a0c1671ff5485da75261be763ef9db__{domain}_fixated.png\x00pa3ofhvvLzw/{domain}/point_64__view_3b9c05000fcf40d3b4e5255626303b39__{domain}_fixated.png\x00pa3ofhvvLzw/{domain}/point_64__view_5882b50dd9144bff89cb5f7d16638355__{domain}_fixated.png\x00pa3ofhvvLzw/{domain}/point_64__view_7a4a5c985e7e4b5d8b3661653b680303__{domain}_fixated.png\x00pa3ofhvvLzw/{domain}/point_64__view_7cc913e4f8b3446497b0bd2c4e848674__{domain}_fixated.png\x00pa3ofhvvLzw/{domain}/point_65__view_20a0c1671ff5485da75261be763ef9db__{domain}_fixated.png\x00pa3ofhvvLzw/{domain}/point_65__view_341e14cc33c44cd48cbe1230272270db__{domain}_fixated.png\x00pa3ofhvvLzw/{domain}/point_65__view_3b9c05000fcf40d3b4e5255626303b39__{domain}_fixated.png\x00pa3ofhvvLzw/{domain}/point_65__view_e35ea8c84afd45869ef2434b420072e4__{domain}_fixated.png\x00pa3ofhvvLzw/{domain}/point_66__view_30e2b3dfb71d4c5cadb454f55f18dad7__{domain}_fixated.png\x00pa3ofhvvLzw/{domain}/point_66__view_33c1240bc276484b91c56a080e19bc0b__{domain}_fixated.png\x00pa3ofhvvLzw/{domain}/point_66__view_4aa83e63f5e54cf18aa96220e6472dbc__{domain}_fixated.png\x00pa3ofhvvLzw/{domain}/point_67__view_646002c368734698a42fab3232a1039a__{domain}_fixated.png\x00pa3ofhvvLzw/{domain}/point_67__view_695df6af2970408dae4e29bb6b4d45a1__{domain}_fixated.png\x00pa3ofhvvLzw/{domain}/point_67__view_827a2d0be84e41868be3b10d670441bf__{domain}_fixated.png\x00pa3ofhvvLzw/{domain}/point_67__view_ca1c1fa850f34d8492def93ebfdda01d__{domain}_fixated.png\x00pa3ofhvvLzw/{domain}/point_68__view_20a0c1671ff5485da75261be763ef9db__{domain}_fixated.png\x00pa3ofhvvLzw/{domain}/point_68__view_341e14cc33c44cd48cbe1230272270db__{domain}_fixated.png\x00pa3ofhvvLzw/{domain}/point_68__view_e35ea8c84afd45869ef2434b420072e4__{domain}_fixated.png\x00pa3ofhvvLzw/{domain}/point_69__view_646002c368734698a42fab3232a1039a__{domain}_fixated.png\x00pa3ofhvvLzw/{domain}/point_69__view_695df6af2970408dae4e29bb6b4d45a1__{domain}_fixated.png\x00pa3ofhvvLzw/{domain}/point_69__view_827a2d0be84e41868be3b10d670441bf__{domain}_fixated.png\x00pa3ofhvvLzw/{domain}/point_69__view_ca1c1fa850f34d8492def93ebfdda01d__{domain}_fixated.png\x00pa3ofhvvLzw/{domain}/point_6__view_25c8ed4db050433c8d2888f6519fb03c__{domain}_fixated.png\x00\x00pa3ofhvvLzw/{domain}/point_6__view_9675bde56b2b4b3cbc9f4f48ffdff5a0__{domain}_fixated.png\x00\x00pa3ofhvvLzw/{domain}/point_6__view_a6ff7ea9259a4d30b3851d811a42bc81__{domain}_fixated.png\x00\x00pa3ofhvvLzw/{domain}/point_70__view_0dabb087739b4decbca522ea41d11e2b__{domain}_fixated.png\x00pa3ofhvvLzw/{domain}/point_70__view_30e2b3dfb71d4c5cadb454f55f18dad7__{domain}_fixated.png\x00pa3ofhvvLzw/{domain}/point_70__view_33c1240bc276484b91c56a080e19bc0b__{domain}_fixated.png\x00pa3ofhvvLzw/{domain}/point_70__view_4aa83e63f5e54cf18aa96220e6472dbc__{domain}_fixated.png\x00pa3ofhvvLzw/{domain}/point_70__view_8549a19947f34117a7c4ae8f48681d81__{domain}_fixated.png\x00pa3ofhvvLzw/{domain}/point_71__view_20a0c1671ff5485da75261be763ef9db__{domain}_fixated.png\x00pa3ofhvvLzw/{domain}/point_71__view_341e14cc33c44cd48cbe1230272270db__{domain}_fixated.png\x00pa3ofhvvLzw/{domain}/point_72__view_3b9c05000fcf40d3b4e5255626303b39__{domain}_fixated.png\x00pa3ofhvvLzw/{domain}/point_72__view_5882b50dd9144bff89cb5f7d16638355__{domain}_fixated.png\x00pa3ofhvvLzw/{domain}/point_73__view_646002c368734698a42fab3232a1039a__{domain}_fixated.png\x00pa3ofhvvLzw/{domain}/point_73__view_695df6af2970408dae4e29bb6b4d45a1__{domain}_fixated.png\x00pa3ofhvvLzw/{domain}/point_73__view_827a2d0be84e41868be3b10d670441bf__{domain}_fixated.png\x00pa3ofhvvLzw/{domain}/point_73__view_e2b1bd0bbf344902bea242bcd2bfba45__{domain}_fixated.png\x00pa3ofhvvLzw/{domain}/point_74__view_30e2b3dfb71d4c5cadb454f55f18dad7__{domain}_fixated.png\x00pa3ofhvvLzw/{domain}/point_74__view_ca1c1fa850f34d8492def93ebfdda01d__{domain}_fixated.png\x00pa3ofhvvLzw/{domain}/point_75__view_20a0c1671ff5485da75261be763ef9db__{domain}_fixated.png\x00pa3ofhvvLzw/{domain}/point_75__view_341e14cc33c44cd48cbe1230272270db__{domain}_fixated.png\x00pa3ofhvvLzw/{domain}/point_75__view_3b9c05000fcf40d3b4e5255626303b39__{domain}_fixated.png\x00pa3ofhvvLzw/{domain}/point_75__view_e35ea8c84afd45869ef2434b420072e4__{domain}_fixated.png\x00pa3ofhvvLzw/{domain}/point_76__view_20a0c1671ff5485da75261be763ef9db__{domain}_fixated.png\x00pa3ofhvvLzw/{domain}/point_76__view_3b9c05000fcf40d3b4e5255626303b39__{domain}_fixated.png\x00pa3ofhvvLzw/{domain}/point_76__view_7cc913e4f8b3446497b0bd2c4e848674__{domain}_fixated.png\x00pa3ofhvvLzw/{domain}/point_76__view_bdafdf26f6c04a478d51b26a10fc7488__{domain}_fixated.png\x00pa3ofhvvLzw/{domain}/point_77__view_3b9c05000fcf40d3b4e5255626303b39__{domain}_fixated.png\x00pa3ofhvvLzw/{domain}/point_77__view_7cc913e4f8b3446497b0bd2c4e848674__{domain}_fixated.png\x00pa3ofhvvLzw/{domain}/point_77__view_bdafdf26f6c04a478d51b26a10fc7488__{domain}_fixated.png\x00pa3ofhvvLzw/{domain}/point_78__view_827a2d0be84e41868be3b10d670441bf__{domain}_fixated.png\x00pa3ofhvvLzw/{domain}/point_78__view_ab2198f82bd74f4f917d15f1ae9db8f2__{domain}_fixated.png\x00pa3ofhvvLzw/{domain}/point_79__view_0dabb087739b4decbca522ea41d11e2b__{domain}_fixated.png\x00pa3ofhvvLzw/{domain}/point_79__view_33c1240bc276484b91c56a080e19bc0b__{domain}_fixated.png\x00pa3ofhvvLzw/{domain}/point_79__view_ca1c1fa850f34d8492def93ebfdda01d__{domain}_fixated.png\x00pa3ofhvvLzw/{domain}/point_7__view_0dabb087739b4decbca522ea41d11e2b__{domain}_fixated.png\x00\x00pa3ofhvvLzw/{domain}/point_7__view_30e2b3dfb71d4c5cadb454f55f18dad7__{domain}_fixated.png\x00\x00pa3ofhvvLzw/{domain}/point_7__view_33c1240bc276484b91c56a080e19bc0b__{domain}_fixated.png\x00\x00pa3ofhvvLzw/{domain}/point_7__view_4aa83e63f5e54cf18aa96220e6472dbc__{domain}_fixated.png\x00\x00pa3ofhvvLzw/{domain}/point_7__view_8549a19947f34117a7c4ae8f48681d81__{domain}_fixated.png\x00\x00pa3ofhvvLzw/{domain}/point_80__view_341e14cc33c44cd48cbe1230272270db__{domain}_fixated.png\x00pa3ofhvvLzw/{domain}/point_80__view_d699402350db4c8784d0152f99a4d238__{domain}_fixated.png\x00pa3ofhvvLzw/{domain}/point_80__view_e35ea8c84afd45869ef2434b420072e4__{domain}_fixated.png\x00pa3ofhvvLzw/{domain}/point_80__view_ea6847c2cb9348178bd0697a5e92ecaa__{domain}_fixated.png\x00pa3ofhvvLzw/{domain}/point_81__view_341e14cc33c44cd48cbe1230272270db__{domain}_fixated.png\x00pa3ofhvvLzw/{domain}/point_81__view_50dbfa23f49345ea8fa6110958d49f71__{domain}_fixated.png\x00pa3ofhvvLzw/{domain}/point_81__view_bdafdf26f6c04a478d51b26a10fc7488__{domain}_fixated.png\x00pa3ofhvvLzw/{domain}/point_81__view_e35ea8c84afd45869ef2434b420072e4__{domain}_fixated.png\x00pa3ofhvvLzw/{domain}/point_82__view_646002c368734698a42fab3232a1039a__{domain}_fixated.png\x00pa3ofhvvLzw/{domain}/point_82__view_695df6af2970408dae4e29bb6b4d45a1__{domain}_fixated.png\x00pa3ofhvvLzw/{domain}/point_82__view_827a2d0be84e41868be3b10d670441bf__{domain}_fixated.png\x00pa3ofhvvLzw/{domain}/point_82__view_ab2198f82bd74f4f917d15f1ae9db8f2__{domain}_fixated.png\x00pa3ofhvvLzw/{domain}/point_82__view_e2b1bd0bbf344902bea242bcd2bfba45__{domain}_fixated.png\x00pa3ofhvvLzw/{domain}/point_83__view_25c8ed4db050433c8d2888f6519fb03c__{domain}_fixated.png\x00pa3ofhvvLzw/{domain}/point_83__view_8549a19947f34117a7c4ae8f48681d81__{domain}_fixated.png\x00pa3ofhvvLzw/{domain}/point_83__view_9675bde56b2b4b3cbc9f4f48ffdff5a0__{domain}_fixated.png\x00pa3ofhvvLzw/{domain}/point_84__view_20a0c1671ff5485da75261be763ef9db__{domain}_fixated.png\x00pa3ofhvvLzw/{domain}/point_84__view_3b9c05000fcf40d3b4e5255626303b39__{domain}_fixated.png\x00pa3ofhvvLzw/{domain}/point_84__view_e35ea8c84afd45869ef2434b420072e4__{domain}_fixated.png\x00pa3ofhvvLzw/{domain}/point_85__view_0dabb087739b4decbca522ea41d11e2b__{domain}_fixated.png\x00pa3ofhvvLzw/{domain}/point_85__view_33c1240bc276484b91c56a080e19bc0b__{domain}_fixated.png\x00pa3ofhvvLzw/{domain}/point_85__view_4aa83e63f5e54cf18aa96220e6472dbc__{domain}_fixated.png\x00pa3ofhvvLzw/{domain}/point_85__view_8549a19947f34117a7c4ae8f48681d81__{domain}_fixated.png\x00pa3ofhvvLzw/{domain}/point_85__view_ca1c1fa850f34d8492def93ebfdda01d__{domain}_fixated.png\x00pa3ofhvvLzw/{domain}/point_86__view_20a0c1671ff5485da75261be763ef9db__{domain}_fixated.png\x00pa3ofhvvLzw/{domain}/point_86__view_341e14cc33c44cd48cbe1230272270db__{domain}_fixated.png\x00pa3ofhvvLzw/{domain}/point_86__view_3b9c05000fcf40d3b4e5255626303b39__{domain}_fixated.png\x00pa3ofhvvLzw/{domain}/point_86__view_7cc913e4f8b3446497b0bd2c4e848674__{domain}_fixated.png\x00pa3ofhvvLzw/{domain}/point_86__view_e35ea8c84afd45869ef2434b420072e4__{domain}_fixated.png\x00pa3ofhvvLzw/{domain}/point_87__view_25c8ed4db050433c8d2888f6519fb03c__{domain}_fixated.png\x00pa3ofhvvLzw/{domain}/point_87__view_9675bde56b2b4b3cbc9f4f48ffdff5a0__{domain}_fixated.png\x00pa3ofhvvLzw/{domain}/point_87__view_a6ff7ea9259a4d30b3851d811a42bc81__{domain}_fixated.png\x00pa3ofhvvLzw/{domain}/point_88__view_695df6af2970408dae4e29bb6b4d45a1__{domain}_fixated.png\x00pa3ofhvvLzw/{domain}/point_88__view_ab2198f82bd74f4f917d15f1ae9db8f2__{domain}_fixated.png\x00pa3ofhvvLzw/{domain}/point_88__view_ca1c1fa850f34d8492def93ebfdda01d__{domain}_fixated.png\x00pa3ofhvvLzw/{domain}/point_89__view_30e2b3dfb71d4c5cadb454f55f18dad7__{domain}_fixated.png\x00pa3ofhvvLzw/{domain}/point_89__view_53b0970d28744d21ba03ff9bfe2cf20e__{domain}_fixated.png\x00pa3ofhvvLzw/{domain}/point_89__view_9312509783424e2c82ed5c10ad350084__{domain}_fixated.png\x00pa3ofhvvLzw/{domain}/point_89__view_ca1c1fa850f34d8492def93ebfdda01d__{domain}_fixated.png\x00pa3ofhvvLzw/{domain}/point_89__view_d9bf19f531ac478ba48be1c481bee6e4__{domain}_fixated.png\x00pa3ofhvvLzw/{domain}/point_8__view_0dabb087739b4decbca522ea41d11e2b__{domain}_fixated.png\x00\x00pa3ofhvvLzw/{domain}/point_8__view_695df6af2970408dae4e29bb6b4d45a1__{domain}_fixated.png\x00\x00pa3ofhvvLzw/{domain}/point_8__view_ca1c1fa850f34d8492def93ebfdda01d__{domain}_fixated.png\x00\x00pa3ofhvvLzw/{domain}/point_90__view_20a0c1671ff5485da75261be763ef9db__{domain}_fixated.png\x00pa3ofhvvLzw/{domain}/point_90__view_341e14cc33c44cd48cbe1230272270db__{domain}_fixated.png\x00pa3ofhvvLzw/{domain}/point_90__view_3b9c05000fcf40d3b4e5255626303b39__{domain}_fixated.png\x00pa3ofhvvLzw/{domain}/point_90__view_7cc913e4f8b3446497b0bd2c4e848674__{domain}_fixated.png\x00pa3ofhvvLzw/{domain}/point_90__view_bdafdf26f6c04a478d51b26a10fc7488__{domain}_fixated.png\x00pa3ofhvvLzw/{domain}/point_90__view_e35ea8c84afd45869ef2434b420072e4__{domain}_fixated.png\x00pa3ofhvvLzw/{domain}/point_91__view_30e2b3dfb71d4c5cadb454f55f18dad7__{domain}_fixated.png\x00pa3ofhvvLzw/{domain}/point_91__view_a6ff7ea9259a4d30b3851d811a42bc81__{domain}_fixated.png\x00pa3ofhvvLzw/{domain}/point_92__view_5882b50dd9144bff89cb5f7d16638355__{domain}_fixated.png\x00pa3ofhvvLzw/{domain}/point_92__view_7a4a5c985e7e4b5d8b3661653b680303__{domain}_fixated.png\x00pa3ofhvvLzw/{domain}/point_93__view_20a0c1671ff5485da75261be763ef9db__{domain}_fixated.png\x00pa3ofhvvLzw/{domain}/point_93__view_3aa2e8c84ebd4d588279a6c6cd5bc618__{domain}_fixated.png\x00pa3ofhvvLzw/{domain}/point_93__view_3b9c05000fcf40d3b4e5255626303b39__{domain}_fixated.png\x00pa3ofhvvLzw/{domain}/point_93__view_7a4a5c985e7e4b5d8b3661653b680303__{domain}_fixated.png\x00pa3ofhvvLzw/{domain}/point_93__view_7cc913e4f8b3446497b0bd2c4e848674__{domain}_fixated.png\x00pa3ofhvvLzw/{domain}/point_93__view_e35ea8c84afd45869ef2434b420072e4__{domain}_fixated.png\x00pa3ofhvvLzw/{domain}/point_94__view_9675bde56b2b4b3cbc9f4f48ffdff5a0__{domain}_fixated.png\x00pa3ofhvvLzw/{domain}/point_94__view_a6ff7ea9259a4d30b3851d811a42bc81__{domain}_fixated.png\x00pa3ofhvvLzw/{domain}/point_95__view_00be6a3da05445bbb3b411fa774a3448__{domain}_fixated.png\x00pa3ofhvvLzw/{domain}/point_95__view_0dabb087739b4decbca522ea41d11e2b__{domain}_fixated.png\x00pa3ofhvvLzw/{domain}/point_96__view_5882b50dd9144bff89cb5f7d16638355__{domain}_fixated.png\x00pa3ofhvvLzw/{domain}/point_96__view_7a4a5c985e7e4b5d8b3661653b680303__{domain}_fixated.png\x00pa3ofhvvLzw/{domain}/point_97__view_20a0c1671ff5485da75261be763ef9db__{domain}_fixated.png\x00pa3ofhvvLzw/{domain}/point_97__view_341e14cc33c44cd48cbe1230272270db__{domain}_fixated.png\x00pa3ofhvvLzw/{domain}/point_98__view_25c8ed4db050433c8d2888f6519fb03c__{domain}_fixated.png\x00pa3ofhvvLzw/{domain}/point_98__view_9675bde56b2b4b3cbc9f4f48ffdff5a0__{domain}_fixated.png\x00pa3ofhvvLzw/{domain}/point_98__view_a6ff7ea9259a4d30b3851d811a42bc81__{domain}_fixated.png\x00pa3ofhvvLzw/{domain}/point_99__view_25c8ed4db050433c8d2888f6519fb03c__{domain}_fixated.png\x00pa3ofhvvLzw/{domain}/point_99__view_9675bde56b2b4b3cbc9f4f48ffdff5a0__{domain}_fixated.png\x00pa3ofhvvLzw/{domain}/point_9__view_53b0970d28744d21ba03ff9bfe2cf20e__{domain}_fixated.png\x00\x00pa3ofhvvLzw/{domain}/point_9__view_d9bf19f531ac478ba48be1c481bee6e4__{domain}_fixated.png\x00\x00'
p13
tp14
b.